Certificate:
    Data:
        Version: 3 (0x2)
        Serial Number: 268435678 (0x100000de)
    Signature Algorithm: sha256WithRSAEncryption
        Issuer: C=DE, ST=Hessen, O=privacyidea, CN=CA001
        Validity
            Not Before: May 29 10:59:36 2018 GMT
            Not After : May 29 10:59:36 2019 GMT
        Subject: CN=selfservice,CN=user,O=realm1/emailAddress=meine
        Subject Public Key Info:
            Public Key Algorithm: rsaEncryption
                Public-Key: (2048 bit)
                Modulus:
                    00:cf:3c:d4:33:0e:12:c4:e6:da:cd:b6:56:a1:1c:
                    26:bb:26:1c:8a:4a:73:a8:58:8a:b6:1e:b3:8b:99:
                    d2:1d:07:c2:92:89:79:c0:69:d8:c8:df:28:61:98:
                    1e:b3:fe:ae:2b:bd:78:a9:f7:6e:47:dc:a3:a0:16:
                    8c:85:02:c1:4e:92:fd:72:6e:f0:c8:03:29:9b:b8:
                    00:6e:c0:83:95:c8:34:20:36:9c:b3:e5:e4:e6:76:
                    73:a3:1a:ad:40:96:e0:53:54:00:ec:76:79:9a:c6:
                    0d:7e:b6:bd:29:ec:83:f3:cb:89:a4:cb:6c:00:ba:
                    0c:c5:78:0f:ff:69:b8:94:f4:04:70:43:3f:d8:9e:
                    d7:a7:fb:5d:ce:75:8e:da:e7:c4:07:b1:9d:de:6f:
                    88:4b:b6:4d:9a:cf:f9:bc:fa:9f:cd:32:6d:f6:3a:
                    0b:0d:23:42:78:ec:97:42:bf:0e:4d:60:56:e1:d3:
                    02:f2:19:cb:84:57:90:e5:70:a1:a2:83:35:86:e2:
                    da:86:9f:f9:8a:c4:79:b3:52:28:da:cb:bb:34:ca:
                    d3:da:91:4a:cf:8d:76:a2:b2:6b:9b:f9:96:fd:09:
                    2a:da:11:23:4d:f0:cb:d6:b2:b1:0e:12:6c:9a:19:
                    65:98:87:ca:e4:ee:24:ce:44:ac:90:8f:9d:1b:c5:
                    2a:9d
                Exponent: 65537 (0x10001)
        X509v3 extensions:
            X509v3 Key Usage: 
                Digital Signature, Key Encipherment
            X509v3 Basic Constraints: 
                CA:FALSE
            Netscape Cert Type: 
                SSL Server
            Netscape Comment: 
                OpenSSL Generated Server Certificate
            X509v3 Subject Key Identifier: 
                4D:07:90:AD:FF:1D:0D:E7:1A:DD:D6:2E:FA:BA:34:CB:AA:1F:24:C6
            X509v3 Authority Key Identifier: 
                keyid:F4:A7:C0:CC:91:46:AF:64:F3:91:F2:27:F8:C8:B2:6F:8A:87:32:73
                DirName:/C=DE/ST=Hessen/O=privacyidea/CN=CA001
                serial:FB:C8:EB:AC:83:CD:12:07

            X509v3 Extended Key Usage: 
                TLS Web Server Authentication
    Signature Algorithm: sha256WithRSAEncryption
         a2:1d:5a:0b:46:45:b8:7e:e1:ac:e2:f7:03:95:f4:ba:b1:0f:
         94:06:07:9e:78:42:aa:10:80:71:f6:b9:63:ef:e4:ce:29:c7:
         10:3f:6b:62:27:a3:8c:04:74:c8:00:f6:0e:28:2e:35:24:03:
         38:d0:a1:b3:8e:90:28:ad:33:08:17:42:ea:d9:28:27:8f:cc:
         85:74:46:e5:2d:5b:15:aa:42:1e:9e:93:cc:7c:d2:72:e8:7a:
         34:22:88:99:c8:68:89:89:18:45:1b:2c:14:d3:f3:9e:bf:31:
         20:ac:58:ce:e3:aa:f5:41:5a:dc:81:1a:e4:ee:24:05:a0:e9:
         ab:ef:5b:6e:34:ff:c3:7e:ea:69:9c:22:1f:6e:73:d2:8b:e8:
         6c:64:c5:05:62:c7:d1:bb:06:44:68:89:88:fe:f8:f6:e9:18:
         21:f5:25:2e:f7:fe:6a:e9:70:a0:05:d0:f0:dd:54:7b:e1:b7:
         69:de:65:d8:8f:57:49:e0:42:4c:c5:57:02:e6:6c:1e:c1:54:
         45:91:70:e8:78:83:da:1b:63:42:c1:73:d9:48:e0:0c:f9:f7:
         cf:33:0b:2e:c1:91:7e:e1:7d:92:79:53:21:41:e0:91:f2:45:
         1f:6c:19:56:2c:ed:53:36:9e:f8:e0:80:2f:62:f3:75:be:62:
         24:36:72:5e
-----BEGIN CERTIFICATE-----
MIIEDzCCAvegAwIBAgIEEAAA3jANBgkqhkiG9w0BAQsFADBEMQswCQYDVQQGEwJE
RTEPMA0GA1UECAwGSGVzc2VuMRQwEgYDVQQKDAtwcml2YWN5aWRlYTEOMAwGA1UE
AwwFQ0EwMDEwHhcNMTgwNTI5MTA1OTM2WhcNMTkwNTI5MTA1OTM2WjA9MSUwIwYD
VQQDDBxzZWxmc2VydmljZSxDTj11c2VyLE89cmVhbG0xMRQwEgYJKoZIhvcNAQkB
FgVtZWluZTCCASIwDQYJKoZIhvcNAQEBBQADggEPADCCAQoCggEBAM881DMOEsTm
2s22VqEcJrsmHIpKc6hYirYes4uZ0h0HwpKJecBp2MjfKGGYHrP+riu9eKn3bkfc
o6AWjIUCwU6S/XJu8MgDKZu4AG7Ag5XINCA2nLPl5OZ2c6MarUCW4FNUAOx2eZrG
DX62vSnsg/PLiaTLbAC6DMV4D/9puJT0BHBDP9ie16f7Xc51jtrnxAexnd5viEu2
TZrP+bz6n80ybfY6Cw0jQnjsl0K/Dk1gVuHTAvIZy4RXkOVwoaKDNYbi2oaf+YrE
ebNSKNrLuzTK09qRSs+NdqKya5v5lv0JKtoRI03wy9aysQ4SbJoZZZiHyuTuJM5E
rJCPnRvFKp0CAwEAAaOCAQ4wggEKMAsGA1UdDwQEAwIFoDAJBgNVHRMEAjAAMBEG
CWCGSAGG+EIBAQQEAwIGQDAzBglghkgBhvhCAQ0EJhYkT3BlblNTTCBHZW5lcmF0
ZWQgU2VydmVyIENlcnRpZmljYXRlMB0GA1UdDgQWBBRNB5Ct/x0N5xrd1i76ujTL
qh8kxjB0BgNVHSMEbTBrgBT0p8DMkUavZPOR8if4yLJviocyc6FIpEYwRDELMAkG
A1UEBhMCREUxDzANBgNVBAgMBkhlc3NlbjEUMBIGA1UECgwLcHJpdmFjeWlkZWEx
DjAMBgNVBAMMBUNBMDAxggkA+8jrrIPNEgcwEwYDVR0lBAwwCgYIKwYBBQUHAwEw
DQYJKoZIhvcNAQELBQADggEBAKIdWgtGRbh+4azi9wOV9LqxD5QGB554QqoQgHH2
uWPv5M4pxxA/a2Ino4wEdMgA9g4oLjUkAzjQobOOkCitMwgXQurZKCePzIV0RuUt
WxWqQh6ek8x80nLoejQiiJnIaImJGEUbLBTT856/MSCsWM7jqvVBWtyBGuTuJAWg
6avvW240/8N+6mmcIh9uc9KL6GxkxQVix9G7BkRoiYj++PbpGCH1JS73/mrpcKAF
0PDdVHvht2neZdiPV0ngQkzFVwLmbB7BVEWRcOh4g9obY0LBc9lI4Az5988zCy7B
kX7hfZJ5UyFB4JHyRR9sGVYs7VM2nvjggC9i83W+YiQ2cl4=
-----END CERTIFICATE-----
