Certificate:
    Data:
        Version: 3 (0x2)
        Serial Number: 268435677 (0x100000dd)
    Signature Algorithm: sha256WithRSAEncryption
        Issuer: C=DE, ST=Hessen, O=privacyidea, CN=CA001
        Validity
            Not Before: May 29 10:51:30 2018 GMT
            Not After : May 29 10:51:30 2019 GMT
        Subject: OU=realm1, CN=cornelius/emailAddress=user@localhost.localdomain
        Subject Public Key Info:
            Public Key Algorithm: rsaEncryption
                Public-Key: (2048 bit)
                Modulus:
                    00:d2:5a:eb:de:2b:d3:fa:f5:67:3e:a1:c1:df:20:
                    c3:fc:82:e5:18:7d:d9:7a:e9:0a:4d:d3:d3:1a:2b:
                    5c:14:fa:9d:52:33:d9:03:e0:28:dd:fb:9a:5e:ad:
                    2a:44:2e:56:aa:a1:dd:c9:b5:b5:bf:10:97:d4:31:
                    b6:a8:e9:6a:fc:ae:e2:7d:fe:0f:85:94:86:e1:b7:
                    09:a1:40:7d:32:95:c0:f9:ef:2e:2f:29:ea:0e:de:
                    7d:42:47:82:f2:c5:76:b0:de:02:5e:b7:17:f7:d7:
                    90:2e:86:ac:29:94:a0:ed:14:dc:ae:e4:1a:cf:f9:
                    64:56:e4:42:67:e5:cb:6f:88:60:96:93:7b:6c:36:
                    6a:53:f0:8f:3a:f4:ef:94:70:4f:9d:98:99:b3:6a:
                    fc:7f:90:53:2a:c3:2b:9c:1d:42:ae:5f:98:05:e7:
                    f5:cc:c0:0b:c1:d4:05:0e:8e:ce:a3:28:33:98:c6:
                    fb:dc:50:f4:c9:8d:f7:72:76:76:87:dd:31:4d:8d:
                    2c:7e:fe:e2:78:e9:0d:7b:ea:b5:b0:17:91:87:ad:
                    af:91:c2:29:9f:7a:f4:8d:05:ef:96:fa:64:c2:29:
                    9c:d6:1a:a6:4e:dc:79:1d:d6:f6:1a:f5:12:76:ae:
                    06:02:80:22:50:a3:eb:d1:24:60:61:28:7d:34:46:
                    48:77
                Exponent: 65537 (0x10001)
        X509v3 extensions:
            X509v3 Key Usage: 
                Digital Signature, Key Encipherment
            X509v3 Basic Constraints: 
                CA:FALSE
            Netscape Cert Type: 
                SSL Server
            Netscape Comment: 
                OpenSSL Generated Server Certificate
            X509v3 Subject Key Identifier: 
                24:22:C5:3D:09:B4:ED:D3:ED:2C:B4:D1:15:1F:C6:25:AC:15:C9:CB
            X509v3 Authority Key Identifier: 
                keyid:F4:A7:C0:CC:91:46:AF:64:F3:91:F2:27:F8:C8:B2:6F:8A:87:32:73
                DirName:/C=DE/ST=Hessen/O=privacyidea/CN=CA001
                serial:FB:C8:EB:AC:83:CD:12:07

            X509v3 Extended Key Usage: 
                TLS Web Server Authentication
    Signature Algorithm: sha256WithRSAEncryption
         1d:c2:0d:f5:c9:cf:39:f0:1f:e6:fb:b9:77:6e:71:e9:c7:1f:
         98:45:15:21:a9:4d:13:95:92:32:19:e3:31:61:43:1c:e2:1f:
         97:98:75:7c:69:43:54:2e:43:c3:8b:1f:6b:47:f0:42:ff:76:
         c7:4c:55:3b:d5:1c:33:a6:6a:54:01:ec:b1:d5:d3:d1:a5:74:
         cd:5c:c0:b7:13:e3:82:ff:81:3e:1a:0d:3d:a0:fc:c9:a0:5d:
         d5:ab:19:18:75:9c:f6:8a:e7:c0:f0:10:01:1c:cb:7e:c9:41:
         ae:c8:d3:33:7f:18:e6:a6:25:62:2b:0d:1b:9c:e7:dd:3b:25:
         03:8e:c0:e1:5a:64:55:55:dc:c9:a9:c4:53:00:ec:0e:36:af:
         f4:e9:b2:0c:8a:e5:70:40:c2:d7:4e:f4:64:97:8a:2b:86:18:
         95:b8:45:b9:ce:90:d8:3d:3d:e0:fa:0a:2a:9c:cf:0e:ea:cf:
         3a:98:7f:8d:91:ca:c8:4e:23:29:dd:74:e1:a4:86:be:0d:3b:
         af:f9:22:56:53:fd:88:35:4d:00:d6:e5:13:f3:7c:65:ed:b3:
         07:b3:6e:dd:ae:76:6f:32:8c:ba:56:6b:98:26:68:5c:ab:e7:
         1b:f7:97:5d:ef:6d:21:bc:b1:bf:61:22:33:7d:5e:d5:80:67:
         df:75:3a:e6
-----BEGIN CERTIFICATE-----
MIIEIjCCAwqgAwIBAgIEEAAA3TANBgkqhkiG9w0BAQsFADBEMQswCQYDVQQGEwJE
RTEPMA0GA1UECAwGSGVzc2VuMRQwEgYDVQQKDAtwcml2YWN5aWRlYTEOMAwGA1UE
AwwFQ0EwMDEwHhcNMTgwNTI5MTA1MTMwWhcNMTkwNTI5MTA1MTMwWjBQMQ8wDQYD
VQQLDAZyZWFsbTExEjAQBgNVBAMMCWNvcm5lbGl1czEpMCcGCSqGSIb3DQEJARYa
dXNlckBsb2NhbGhvc3QubG9jYWxkb21haW4wggEiMA0GCSqGSIb3DQEBAQUAA4IB
DwAwggEKAoIBAQDSWuveK9P69Wc+ocHfIMP8guUYfdl66QpN09MaK1wU+p1SM9kD
4Cjd+5perSpELlaqod3JtbW/EJfUMbao6Wr8ruJ9/g+FlIbhtwmhQH0ylcD57y4v
KeoO3n1CR4LyxXaw3gJetxf315AuhqwplKDtFNyu5BrP+WRW5EJn5ctviGCWk3ts
NmpT8I869O+UcE+dmJmzavx/kFMqwyucHUKuX5gF5/XMwAvB1AUOjs6jKDOYxvvc
UPTJjfdydnaH3TFNjSx+/uJ46Q176rWwF5GHra+RwimfevSNBe+W+mTCKZzWGqZO
3Hkd1vYa9RJ2rgYCgCJQo+vRJGBhKH00Rkh3AgMBAAGjggEOMIIBCjALBgNVHQ8E
BAMCBaAwCQYDVR0TBAIwADARBglghkgBhvhCAQEEBAMCBkAwMwYJYIZIAYb4QgEN
BCYWJE9wZW5TU0wgR2VuZXJhdGVkIFNlcnZlciBDZXJ0aWZpY2F0ZTAdBgNVHQ4E
FgQUJCLFPQm07dPtLLTRFR/GJawVycswdAYDVR0jBG0wa4AU9KfAzJFGr2TzkfIn
+Miyb4qHMnOhSKRGMEQxCzAJBgNVBAYTAkRFMQ8wDQYDVQQIDAZIZXNzZW4xFDAS
BgNVBAoMC3ByaXZhY3lpZGVhMQ4wDAYDVQQDDAVDQTAwMYIJAPvI66yDzRIHMBMG
A1UdJQQMMAoGCCsGAQUFBwMBMA0GCSqGSIb3DQEBCwUAA4IBAQAdwg31yc858B/m
+7l3bnHpxx+YRRUhqU0TlZIyGeMxYUMc4h+XmHV8aUNULkPDix9rR/BC/3bHTFU7
1RwzpmpUAeyx1dPRpXTNXMC3E+OC/4E+Gg09oPzJoF3VqxkYdZz2iufA8BABHMt+
yUGuyNMzfxjmpiViKw0bnOfdOyUDjsDhWmRVVdzJqcRTAOwONq/06bIMiuVwQMLX
TvRkl4orhhiVuEW5zpDYPT3g+goqnM8O6s86mH+NkcrITiMp3XThpIa+DTuv+SJW
U/2INU0A1uUT83xl7bMHs27drnZvMoy6VmuYJmhcq+cb95dd720hvLG/YSIzfV7V
gGffdTrm
-----END CERTIFICATE-----
