Certificate:
    Data:
        Version: 3 (0x2)
        Serial Number: 268435666 (0x100000d2)
    Signature Algorithm: sha256WithRSAEncryption
        Issuer: C=DE, ST=Hessen, O=privacyidea, CN=CA001
        Validity
            Not Before: May 29 10:27:40 2018 GMT
            Not After : May 29 10:27:40 2019 GMT
        Subject: C=DE, ST=Hessen, O=privacyidea, CN=usercert
        Subject Public Key Info:
            Public Key Algorithm: rsaEncryption
                Public-Key: (2048 bit)
                Modulus:
                    00:dc:2f:d1:5f:29:97:d4:7c:c3:53:c8:30:bd:4b:
                    67:70:2c:24:6b:b8:5e:eb:21:7a:48:12:56:7c:81:
                    5c:48:75:b6:68:eb:f6:f2:98:4e:50:51:d1:7f:6c:
                    73:f3:0a:a7:ae:be:48:5e:e5:d6:e1:d9:2a:7c:32:
                    6e:4e:fd:08:f6:5a:54:49:23:73:c3:b9:07:18:d1:
                    ef:b3:ac:f8:8a:dc:94:96:a4:90:3a:8e:74:df:e6:
                    0d:37:1b:bd:5b:b7:25:1a:56:39:da:6f:91:aa:5e:
                    1c:74:f3:f9:7c:14:01:83:12:65:76:c7:bb:fe:36:
                    5b:95:e9:72:65:83:ed:3e:98:30:71:fa:87:dd:a3:
                    36:5a:30:03:2e:26:e0:61:d1:bf:02:3f:b6:06:1f:
                    4a:89:28:1c:5c:a2:ff:4e:be:94:e6:8c:e0:da:82:
                    f1:9d:29:32:48:30:73:b4:04:f6:42:1e:be:f7:e2:
                    32:32:27:3c:9d:89:2f:70:3e:85:9a:6f:5c:c5:09:
                    c0:8c:32:2f:72:22:c9:d2:95:1f:b6:ac:72:60:72:
                    b7:82:4d:6b:ce:5b:e3:00:d0:d2:2f:58:c6:e0:10:
                    e5:51:ca:4d:3b:2e:e6:7e:ab:84:d6:56:f1:93:35:
                    a0:93:64:26:81:75:2f:91:b5:16:06:38:0b:db:cc:
                    2d:07
                Exponent: 65537 (0x10001)
        X509v3 extensions:
            X509v3 Key Usage: 
                Digital Signature, Key Encipherment
            X509v3 Basic Constraints: 
                CA:FALSE
            Netscape Cert Type: 
                SSL Server
            Netscape Comment: 
                OpenSSL Generated Server Certificate
            X509v3 Subject Key Identifier: 
                FC:14:D1:F0:4B:8D:00:90:F2:F5:B8:71:9E:4E:97:C3:92:54:AD:0B
            X509v3 Authority Key Identifier: 
                keyid:F4:A7:C0:CC:91:46:AF:64:F3:91:F2:27:F8:C8:B2:6F:8A:87:32:73
                DirName:/C=DE/ST=Hessen/O=privacyidea/CN=CA001
                serial:FB:C8:EB:AC:83:CD:12:07

            X509v3 Extended Key Usage: 
                TLS Web Server Authentication
    Signature Algorithm: sha256WithRSAEncryption
         37:41:5e:d5:50:03:12:ec:12:e9:f0:75:67:ce:8b:47:8d:9f:
         28:5c:d6:e6:db:e5:68:da:91:0c:25:40:7c:2d:ac:2b:18:af:
         15:e8:45:3a:e8:ef:39:47:19:9d:7f:15:94:22:45:d0:09:01:
         64:af:dc:d2:4f:6d:81:bc:1c:23:0a:b2:02:da:a7:97:53:4e:
         2a:58:d5:86:cc:e7:f2:08:6b:89:83:8c:4b:41:10:2e:1c:5e:
         3d:75:a4:e0:1f:2a:75:7b:ee:41:f6:35:6f:7c:2b:ea:92:5f:
         59:06:a2:df:75:8c:d1:4c:26:37:cf:16:1e:67:77:3f:c6:ad:
         92:74:af:56:f7:47:7f:f0:f1:b0:8e:86:04:31:26:8d:63:81:
         cb:88:67:dd:a1:d3:b0:7d:04:91:54:b9:c6:c5:43:61:11:4f:
         63:34:1d:9f:27:02:63:3d:b3:2e:1d:cd:5b:45:1f:d3:64:f6:
         13:20:8d:bd:79:56:94:32:31:bc:80:28:98:04:e3:04:1d:d4:
         90:bf:cf:35:16:b9:95:80:a3:76:d8:8c:59:df:f9:49:73:ce:
         f8:6c:84:0e:f1:03:f3:6f:77:f0:2d:89:71:ca:f7:28:6c:b5:
         ce:9e:18:17:d0:a1:91:41:dd:e3:c8:b3:9f:98:04:67:69:b7:
         88:d2:c5:56
-----BEGIN CERTIFICATE-----
MIIEGTCCAwGgAwIBAgIEEAAA0jANBgkqhkiG9w0BAQsFADBEMQswCQYDVQQGEwJE
RTEPMA0GA1UECAwGSGVzc2VuMRQwEgYDVQQKDAtwcml2YWN5aWRlYTEOMAwGA1UE
AwwFQ0EwMDEwHhcNMTgwNTI5MTAyNzQwWhcNMTkwNTI5MTAyNzQwWjBHMQswCQYD
VQQGEwJERTEPMA0GA1UECAwGSGVzc2VuMRQwEgYDVQQKDAtwcml2YWN5aWRlYTER
MA8GA1UEAwwIdXNlcmNlcnQwggEiMA0GCSqGSIb3DQEBAQUAA4IBDwAwggEKAoIB
AQDcL9FfKZfUfMNTyDC9S2dwLCRruF7rIXpIElZ8gVxIdbZo6/bymE5QUdF/bHPz
Cqeuvkhe5dbh2Sp8Mm5O/Qj2WlRJI3PDuQcY0e+zrPiK3JSWpJA6jnTf5g03G71b
tyUaVjnab5GqXhx08/l8FAGDEmV2x7v+NluV6XJlg+0+mDBx+ofdozZaMAMuJuBh
0b8CP7YGH0qJKBxcov9OvpTmjODagvGdKTJIMHO0BPZCHr734jIyJzydiS9wPoWa
b1zFCcCMMi9yIsnSlR+2rHJgcreCTWvOW+MA0NIvWMbgEOVRyk07LuZ+q4TWVvGT
NaCTZCaBdS+RtRYGOAvbzC0HAgMBAAGjggEOMIIBCjALBgNVHQ8EBAMCBaAwCQYD
VR0TBAIwADARBglghkgBhvhCAQEEBAMCBkAwMwYJYIZIAYb4QgENBCYWJE9wZW5T
U0wgR2VuZXJhdGVkIFNlcnZlciBDZXJ0aWZpY2F0ZTAdBgNVHQ4EFgQU/BTR8EuN
AJDy9bhxnk6Xw5JUrQswdAYDVR0jBG0wa4AU9KfAzJFGr2TzkfIn+Miyb4qHMnOh
SKRGMEQxCzAJBgNVBAYTAkRFMQ8wDQYDVQQIDAZIZXNzZW4xFDASBgNVBAoMC3By
aXZhY3lpZGVhMQ4wDAYDVQQDDAVDQTAwMYIJAPvI66yDzRIHMBMGA1UdJQQMMAoG
CCsGAQUFBwMBMA0GCSqGSIb3DQEBCwUAA4IBAQA3QV7VUAMS7BLp8HVnzotHjZ8o
XNbm2+Vo2pEMJUB8LawrGK8V6EU66O85RxmdfxWUIkXQCQFkr9zST22BvBwjCrIC
2qeXU04qWNWGzOfyCGuJg4xLQRAuHF49daTgHyp1e+5B9jVvfCvqkl9ZBqLfdYzR
TCY3zxYeZ3c/xq2SdK9W90d/8PGwjoYEMSaNY4HLiGfdodOwfQSRVLnGxUNhEU9j
NB2fJwJjPbMuHc1bRR/TZPYTII29eVaUMjG8gCiYBOMEHdSQv881FrmVgKN22IxZ
3/lJc874bIQO8QPzb3fwLYlxyvcobLXOnhgX0KGRQd3jyLOfmARnabeI0sVW
-----END CERTIFICATE-----
