Certificate:
    Data:
        Version: 3 (0x2)
        Serial Number: 268435668 (0x100000d4)
    Signature Algorithm: sha256WithRSAEncryption
        Issuer: C=DE, ST=Hessen, O=privacyidea, CN=CA001
        Validity
            Not Before: May 29 10:27:41 2018 GMT
            Not After : Jun 17 10:27:41 2020 GMT
        Subject: CN=Steve Test/emailAddress=steve@openssl.org
        Subject Public Key Info:
            Public Key Algorithm: rsaEncryption
                Public-Key: (2048 bit)
                Modulus:
                    00:d2:81:89:20:51:48:0f:73:f4:11:32:24:d5:1f:
                    1c:fd:5c:f5:b6:e6:c5:f0:52:81:dc:d2:af:66:4a:
                    7c:93:31:61:5c:af:d1:6d:06:70:03:60:7c:72:0c:
                    88:dd:49:cd:9e:02:6c:d2:5a:d7:53:0f:f3:da:be:
                    69:64:b5:0f:0c:00:e3:b3:50:47:a3:b3:9b:ba:13:
                    50:d6:58:5a:4b:ab:39:e0:11:ca:0a:27:67:03:78:
                    22:66:6d:92:1e:1b:5c:49:ae:e6:6b:d1:8e:3b:9d:
                    06:d3:c6:ac:4d:53:43:10:ab:e8:96:c1:87:82:97:
                    99:8f:20:d3:99:12:37:31:84:e1:8a:ff:29:03:5f:
                    22:90:3e:7f:9b:e0:20:c1:ad:dc:ae:4c:39:1a:31:
                    96:17:02:8c:b2:d9:b4:0d:20:12:9b:7d:86:54:fd:
                    33:fd:c1:2a:62:46:f8:60:96:cf:6e:01:6f:22:df:
                    13:47:e7:97:ec:05:72:23:a3:62:f8:fa:ef:ac:9c:
                    72:f0:37:cb:2f:37:cf:90:a8:27:51:86:c6:d7:78:
                    08:8f:7e:25:a2:15:70:a2:fb:1c:b6:15:5e:a0:97:
                    8b:81:4c:09:28:8a:27:3b:94:bc:71:db:5b:71:37:
                    9a:2b:16:e0:6f:b5:c9:f5:4b:4f:20:ba:65:cf:af:
                    ad:ad
                Exponent: 65537 (0x10001)
        X509v3 extensions:
            X509v3 Key Usage: 
                Digital Signature, Key Encipherment
            X509v3 Basic Constraints: 
                CA:FALSE
            Netscape Cert Type: 
                SSL Server
            Netscape Comment: 
                OpenSSL Generated Server Certificate
            X509v3 Subject Key Identifier: 
                E5:25:6D:3E:AF:0D:DD:3F:4C:F2:45:19:39:D5:14:DB:7E:9C:C0:AD
            X509v3 Authority Key Identifier: 
                keyid:F4:A7:C0:CC:91:46:AF:64:F3:91:F2:27:F8:C8:B2:6F:8A:87:32:73
                DirName:/C=DE/ST=Hessen/O=privacyidea/CN=CA001
                serial:FB:C8:EB:AC:83:CD:12:07

            X509v3 Extended Key Usage: 
                TLS Web Server Authentication
    Signature Algorithm: sha256WithRSAEncryption
         33:a2:97:d7:43:ef:c4:80:60:38:05:4c:8d:7a:28:e6:87:3d:
         2a:6c:4c:6b:46:ae:19:28:ab:f4:3c:39:5c:0b:6f:8e:ed:8a:
         49:f5:99:d4:7d:65:a3:bd:46:c0:5e:95:17:50:69:f5:7f:1f:
         05:b6:23:9d:e9:14:bf:23:13:c6:c6:0c:9a:5c:e6:93:a5:2f:
         50:13:25:b1:16:6e:01:8d:92:25:8a:b1:8b:5b:75:6d:c9:d7:
         3b:af:6f:5e:cd:ac:66:d0:8e:0f:d8:64:02:f0:7e:74:ca:90:
         ec:5f:45:31:69:f5:0c:51:da:98:78:23:3e:70:2b:e9:b2:32:
         b0:4d:19:bd:12:44:62:af:12:b5:c6:b7:7a:c4:14:7d:49:2e:
         9d:43:2c:2e:c3:69:94:ab:70:7e:41:70:c8:88:bf:07:65:d1:
         ed:e2:29:9f:65:66:81:c1:7d:6a:47:e8:88:02:dc:34:15:ac:
         a9:b3:dd:16:4f:4d:73:1c:a1:72:39:1b:98:4f:59:ae:9e:e4:
         ac:2c:42:2c:92:49:75:08:da:2c:b9:e5:c0:c4:90:58:af:d5:
         79:fa:da:0e:8c:00:c1:ed:fc:a6:58:ab:a4:39:96:8e:af:bc:
         1c:40:f9:d0:d6:95:c3:dd:e2:7d:24:c1:4d:16:0d:ec:c8:99:
         18:4c:11:9e
-----BEGIN CERTIFICATE-----
MIIECTCCAvGgAwIBAgIEEAAA1DANBgkqhkiG9w0BAQsFADBEMQswCQYDVQQGEwJE
RTEPMA0GA1UECAwGSGVzc2VuMRQwEgYDVQQKDAtwcml2YWN5aWRlYTEOMAwGA1UE
AwwFQ0EwMDEwHhcNMTgwNTI5MTAyNzQxWhcNMjAwNjE3MTAyNzQxWjA3MRMwEQYD
VQQDDApTdGV2ZSBUZXN0MSAwHgYJKoZIhvcNAQkBFhFzdGV2ZUBvcGVuc3NsLm9y
ZzCCASIwDQYJKoZIhvcNAQEBBQADggEPADCCAQoCggEBANKBiSBRSA9z9BEyJNUf
HP1c9bbmxfBSgdzSr2ZKfJMxYVyv0W0GcANgfHIMiN1JzZ4CbNJa11MP89q+aWS1
DwwA47NQR6Ozm7oTUNZYWkurOeARygonZwN4ImZtkh4bXEmu5mvRjjudBtPGrE1T
QxCr6JbBh4KXmY8g05kSNzGE4Yr/KQNfIpA+f5vgIMGt3K5MORoxlhcCjLLZtA0g
Ept9hlT9M/3BKmJG+GCWz24BbyLfE0fnl+wFciOjYvj676yccvA3yy83z5CoJ1GG
xtd4CI9+JaIVcKL7HLYVXqCXi4FMCSiKJzuUvHHbW3E3misW4G+1yfVLTyC6Zc+v
ra0CAwEAAaOCAQ4wggEKMAsGA1UdDwQEAwIFoDAJBgNVHRMEAjAAMBEGCWCGSAGG
+EIBAQQEAwIGQDAzBglghkgBhvhCAQ0EJhYkT3BlblNTTCBHZW5lcmF0ZWQgU2Vy
dmVyIENlcnRpZmljYXRlMB0GA1UdDgQWBBTlJW0+rw3dP0zyRRk51RTbfpzArTB0
BgNVHSMEbTBrgBT0p8DMkUavZPOR8if4yLJviocyc6FIpEYwRDELMAkGA1UEBhMC
REUxDzANBgNVBAgMBkhlc3NlbjEUMBIGA1UECgwLcHJpdmFjeWlkZWExDjAMBgNV
BAMMBUNBMDAxggkA+8jrrIPNEgcwEwYDVR0lBAwwCgYIKwYBBQUHAwEwDQYJKoZI
hvcNAQELBQADggEBADOil9dD78SAYDgFTI16KOaHPSpsTGtGrhkoq/Q8OVwLb47t
ikn1mdR9ZaO9RsBelRdQafV/HwW2I53pFL8jE8bGDJpc5pOlL1ATJbEWbgGNkiWK
sYtbdW3J1zuvb17NrGbQjg/YZALwfnTKkOxfRTFp9QxR2ph4Iz5wK+myMrBNGb0S
RGKvErXGt3rEFH1JLp1DLC7DaZSrcH5BcMiIvwdl0e3iKZ9lZoHBfWpH6IgC3DQV
rKmz3RZPTXMcoXI5G5hPWa6e5KwsQiySSXUI2iy55cDEkFiv1Xn62g6MAMHt/KZY
q6Q5lo6vvBxA+dDWlcPd4n0kwU0WDezImRhMEZ4=
-----END CERTIFICATE-----
