Certificate:
    Data:
        Version: 3 (0x2)
        Serial Number: 268435669 (0x100000d5)
    Signature Algorithm: sha256WithRSAEncryption
        Issuer: C=DE, ST=Hessen, O=privacyidea, CN=CA001
        Validity
            Not Before: May 29 10:31:26 2018 GMT
            Not After : May 29 10:31:26 2019 GMT
        Subject: C=DE, ST=Hessen, O=privacyidea, CN=requester.localdomain
        Subject Public Key Info:
            Public Key Algorithm: rsaEncryption
                Public-Key: (2048 bit)
                Modulus:
                    00:cd:be:14:4f:fa:ce:01:3f:42:22:1b:1d:9c:af:
                    dd:92:d2:7f:db:6c:b7:3e:39:43:43:6b:13:03:f1:
                    05:f4:07:74:bc:76:69:28:0b:af:19:8e:d7:fc:e3:
                    cd:c6:58:f2:ca:7f:08:6d:53:fc:07:02:44:24:c6:
                    b4:34:4c:8c:04:fe:33:0e:40:e2:20:ba:02:73:5a:
                    f7:f5:4f:63:6e:cc:c6:b6:df:54:1d:37:39:7d:51:
                    36:26:5f:bd:dc:3f:a8:8b:6b:a2:ae:b6:9d:d6:21:
                    e7:df:41:b8:7a:28:2a:68:48:ca:a8:2d:ed:e1:e9:
                    46:5e:5a:72:6d:b4:84:38:87:91:fd:94:11:0b:28:
                    84:c6:c2:2f:2a:fb:01:f9:36:7a:09:75:d1:33:88:
                    3c:73:41:5b:c8:bf:94:89:70:a1:f0:c0:b9:2e:50:
                    53:1e:b1:17:64:69:f4:2d:81:e0:a9:0d:0e:32:e9:
                    ba:55:8a:85:f1:1b:6f:49:79:b4:7f:88:c3:0d:3e:
                    54:88:9b:3d:1f:38:8c:04:f3:ee:6a:63:2b:f5:c6:
                    db:b4:83:aa:c4:78:41:3a:7d:4b:e1:c8:3e:71:ca:
                    1b:61:59:ea:c6:c4:ca:32:5e:c9:e9:bf:12:29:e6:
                    c6:c3:63:fe:a0:55:da:7a:f1:60:98:4d:26:ed:fa:
                    70:2d
                Exponent: 65537 (0x10001)
        X509v3 extensions:
            X509v3 Key Usage: 
                Digital Signature, Key Encipherment
            X509v3 Basic Constraints: 
                CA:FALSE
            Netscape Cert Type: 
                SSL Server
            Netscape Comment: 
                OpenSSL Generated Server Certificate
            X509v3 Subject Key Identifier: 
                53:3F:ED:5D:09:07:B3:65:7B:AB:45:C9:24:5B:09:77:80:0A:96:ED
            X509v3 Authority Key Identifier: 
                keyid:F4:A7:C0:CC:91:46:AF:64:F3:91:F2:27:F8:C8:B2:6F:8A:87:32:73
                DirName:/C=DE/ST=Hessen/O=privacyidea/CN=CA001
                serial:FB:C8:EB:AC:83:CD:12:07

            X509v3 Extended Key Usage: 
                TLS Web Server Authentication
    Signature Algorithm: sha256WithRSAEncryption
         47:df:7f:b8:83:f6:69:9d:81:1f:17:f5:7e:cd:6d:b1:9b:e7:
         f6:ab:d4:1d:37:00:38:56:e6:bb:1d:ce:8e:5a:7f:7e:ce:22:
         56:96:89:a1:77:bf:e3:68:f0:bb:83:ea:01:2c:07:ab:5c:76:
         b0:c4:74:6d:96:6d:0b:4f:8d:71:34:2e:11:76:3c:2d:da:6f:
         f5:e7:7a:9a:50:85:a7:63:31:22:4b:c8:16:44:9b:ed:fb:b9:
         eb:6e:20:f2:f1:a6:21:cc:21:d9:4f:5c:62:24:d3:73:87:f0:
         7b:fe:92:05:dc:e2:60:a7:b0:44:58:d7:ce:31:47:ac:0b:dc:
         a7:95:28:1c:0e:fe:c2:9f:97:95:10:cd:32:cb:09:ec:5e:e2:
         a5:33:c8:a3:78:4e:92:44:76:a3:c5:70:0d:ca:6d:e9:93:f4:
         c8:9a:2a:8e:7b:be:26:0f:1c:9e:da:d6:1e:00:96:38:98:1c:
         de:88:bd:db:15:1f:00:4f:67:8b:ae:78:f8:92:86:70:fc:cf:
         af:a3:53:c0:7c:6b:15:f2:45:41:46:23:8d:4f:35:01:b2:f9:
         db:71:70:40:f4:d1:06:e3:0c:ca:35:c8:07:1f:5b:ae:ae:ea:
         bd:bc:41:fd:fa:7b:c3:79:1c:05:5c:73:e6:77:c8:7d:c0:ff:
         a7:a2:34:71
-----BEGIN CERTIFICATE-----
MIIEJjCCAw6gAwIBAgIEEAAA1TANBgkqhkiG9w0BAQsFADBEMQswCQYDVQQGEwJE
RTEPMA0GA1UECAwGSGVzc2VuMRQwEgYDVQQKDAtwcml2YWN5aWRlYTEOMAwGA1UE
AwwFQ0EwMDEwHhcNMTgwNTI5MTAzMTI2WhcNMTkwNTI5MTAzMTI2WjBUMQswCQYD
VQQGEwJERTEPMA0GA1UECAwGSGVzc2VuMRQwEgYDVQQKDAtwcml2YWN5aWRlYTEe
MBwGA1UEAwwVcmVxdWVzdGVyLmxvY2FsZG9tYWluMIIBIjANBgkqhkiG9w0BAQEF
AAOCAQ8AMIIBCgKCAQEAzb4UT/rOAT9CIhsdnK/dktJ/22y3PjlDQ2sTA/EF9Ad0
vHZpKAuvGY7X/OPNxljyyn8IbVP8BwJEJMa0NEyMBP4zDkDiILoCc1r39U9jbszG
tt9UHTc5fVE2Jl+93D+oi2uirrad1iHn30G4eigqaEjKqC3t4elGXlpybbSEOIeR
/ZQRCyiExsIvKvsB+TZ6CXXRM4g8c0FbyL+UiXCh8MC5LlBTHrEXZGn0LYHgqQ0O
Mum6VYqF8RtvSXm0f4jDDT5UiJs9HziMBPPuamMr9cbbtIOqxHhBOn1L4cg+ccob
YVnqxsTKMl7J6b8SKebGw2P+oFXaevFgmE0m7fpwLQIDAQABo4IBDjCCAQowCwYD
VR0PBAQDAgWgMAkGA1UdEwQCMAAwEQYJYIZIAYb4QgEBBAQDAgZAMDMGCWCGSAGG
+EIBDQQmFiRPcGVuU1NMIEdlbmVyYXRlZCBTZXJ2ZXIgQ2VydGlmaWNhdGUwHQYD
VR0OBBYEFFM/7V0JB7Nle6tFySRbCXeACpbtMHQGA1UdIwRtMGuAFPSnwMyRRq9k
85HyJ/jIsm+KhzJzoUikRjBEMQswCQYDVQQGEwJERTEPMA0GA1UECAwGSGVzc2Vu
MRQwEgYDVQQKDAtwcml2YWN5aWRlYTEOMAwGA1UEAwwFQ0EwMDGCCQD7yOusg80S
BzATBgNVHSUEDDAKBggrBgEFBQcDATANBgkqhkiG9w0BAQsFAAOCAQEAR99/uIP2
aZ2BHxf1fs1tsZvn9qvUHTcAOFbmux3Ojlp/fs4iVpaJoXe/42jwu4PqASwHq1x2
sMR0bZZtC0+NcTQuEXY8Ldpv9ed6mlCFp2MxIkvIFkSb7fu5624g8vGmIcwh2U9c
YiTTc4fwe/6SBdziYKewRFjXzjFHrAvcp5UoHA7+wp+XlRDNMssJ7F7ipTPIo3hO
kkR2o8VwDcpt6ZP0yJoqjnu+Jg8cntrWHgCWOJgc3oi92xUfAE9ni654+JKGcPzP
r6NTwHxrFfJFQUYjjU81AbL523FwQPTRBuMMyjXIBx9brq7qvbxB/fp7w3kcBVxz
5nfIfcD/p6I0cQ==
-----END CERTIFICATE-----
