Certificate:
    Data:
        Version: 3 (0x2)
        Serial Number: 268435675 (0x100000db)
    Signature Algorithm: sha256WithRSAEncryption
        Issuer: C=DE, ST=Hessen, O=privacyidea, CN=CA001
        Validity
            Not Before: May 29 10:47:40 2018 GMT
            Not After : Jun 17 10:47:40 2020 GMT
        Subject: CN=Steve Test/emailAddress=steve@openssl.org
        Subject Public Key Info:
            Public Key Algorithm: rsaEncryption
                Public-Key: (2048 bit)
                Modulus:
                    00:d2:81:89:20:51:48:0f:73:f4:11:32:24:d5:1f:
                    1c:fd:5c:f5:b6:e6:c5:f0:52:81:dc:d2:af:66:4a:
                    7c:93:31:61:5c:af:d1:6d:06:70:03:60:7c:72:0c:
                    88:dd:49:cd:9e:02:6c:d2:5a:d7:53:0f:f3:da:be:
                    69:64:b5:0f:0c:00:e3:b3:50:47:a3:b3:9b:ba:13:
                    50:d6:58:5a:4b:ab:39:e0:11:ca:0a:27:67:03:78:
                    22:66:6d:92:1e:1b:5c:49:ae:e6:6b:d1:8e:3b:9d:
                    06:d3:c6:ac:4d:53:43:10:ab:e8:96:c1:87:82:97:
                    99:8f:20:d3:99:12:37:31:84:e1:8a:ff:29:03:5f:
                    22:90:3e:7f:9b:e0:20:c1:ad:dc:ae:4c:39:1a:31:
                    96:17:02:8c:b2:d9:b4:0d:20:12:9b:7d:86:54:fd:
                    33:fd:c1:2a:62:46:f8:60:96:cf:6e:01:6f:22:df:
                    13:47:e7:97:ec:05:72:23:a3:62:f8:fa:ef:ac:9c:
                    72:f0:37:cb:2f:37:cf:90:a8:27:51:86:c6:d7:78:
                    08:8f:7e:25:a2:15:70:a2:fb:1c:b6:15:5e:a0:97:
                    8b:81:4c:09:28:8a:27:3b:94:bc:71:db:5b:71:37:
                    9a:2b:16:e0:6f:b5:c9:f5:4b:4f:20:ba:65:cf:af:
                    ad:ad
                Exponent: 65537 (0x10001)
        X509v3 extensions:
            X509v3 Key Usage: 
                Digital Signature, Key Encipherment
            X509v3 Basic Constraints: 
                CA:FALSE
            Netscape Cert Type: 
                SSL Server
            Netscape Comment: 
                OpenSSL Generated Server Certificate
            X509v3 Subject Key Identifier: 
                E5:25:6D:3E:AF:0D:DD:3F:4C:F2:45:19:39:D5:14:DB:7E:9C:C0:AD
            X509v3 Authority Key Identifier: 
                keyid:F4:A7:C0:CC:91:46:AF:64:F3:91:F2:27:F8:C8:B2:6F:8A:87:32:73
                DirName:/C=DE/ST=Hessen/O=privacyidea/CN=CA001
                serial:FB:C8:EB:AC:83:CD:12:07

            X509v3 Extended Key Usage: 
                TLS Web Server Authentication
    Signature Algorithm: sha256WithRSAEncryption
         3f:fd:eb:aa:0f:8e:7a:2c:02:74:ab:d7:2a:fc:04:87:49:39:
         b4:25:60:64:93:fa:34:e6:26:1d:8d:f6:91:34:7b:7d:27:a9:
         b8:a8:48:57:03:ea:de:e3:b7:7d:a4:98:5c:67:25:59:5b:df:
         ac:1b:20:7c:75:3a:26:d9:5a:25:f7:9b:fd:02:cb:b7:4b:4d:
         32:f9:e1:e6:b9:2e:c8:cc:20:5e:ad:06:a5:e6:8a:93:3c:20:
         41:31:56:6d:10:66:bb:29:48:00:ad:5a:a3:8c:0c:8d:56:b3:
         99:0d:6f:54:54:04:5c:d1:b7:82:89:4c:33:50:9e:70:48:cf:
         ec:7f:21:7f:4b:ee:3a:39:40:d2:08:9e:e9:b8:28:3a:be:a5:
         0b:8c:f0:42:bb:cd:92:d8:48:6b:5b:bc:1f:9e:0c:ba:48:a6:
         9d:56:c4:de:02:ac:21:3f:60:a8:dd:3a:8b:42:8d:fc:c5:94:
         ce:dc:7f:71:b9:26:2b:94:43:7b:c3:49:06:74:b1:59:88:96:
         41:07:26:a9:d5:5b:53:10:e2:9c:4e:5a:35:e7:eb:1a:7f:b3:
         a2:85:36:e4:75:c6:cb:5a:0c:a7:1e:15:10:65:45:7c:5a:6b:
         38:0f:05:a8:e8:ec:15:d8:dd:d0:52:d2:3c:08:69:36:21:49:
         0c:73:46:4b
-----BEGIN CERTIFICATE-----
MIIECTCCAvGgAwIBAgIEEAAA2zANBgkqhkiG9w0BAQsFADBEMQswCQYDVQQGEwJE
RTEPMA0GA1UECAwGSGVzc2VuMRQwEgYDVQQKDAtwcml2YWN5aWRlYTEOMAwGA1UE
AwwFQ0EwMDEwHhcNMTgwNTI5MTA0NzQwWhcNMjAwNjE3MTA0NzQwWjA3MRMwEQYD
VQQDDApTdGV2ZSBUZXN0MSAwHgYJKoZIhvcNAQkBFhFzdGV2ZUBvcGVuc3NsLm9y
ZzCCASIwDQYJKoZIhvcNAQEBBQADggEPADCCAQoCggEBANKBiSBRSA9z9BEyJNUf
HP1c9bbmxfBSgdzSr2ZKfJMxYVyv0W0GcANgfHIMiN1JzZ4CbNJa11MP89q+aWS1
DwwA47NQR6Ozm7oTUNZYWkurOeARygonZwN4ImZtkh4bXEmu5mvRjjudBtPGrE1T
QxCr6JbBh4KXmY8g05kSNzGE4Yr/KQNfIpA+f5vgIMGt3K5MORoxlhcCjLLZtA0g
Ept9hlT9M/3BKmJG+GCWz24BbyLfE0fnl+wFciOjYvj676yccvA3yy83z5CoJ1GG
xtd4CI9+JaIVcKL7HLYVXqCXi4FMCSiKJzuUvHHbW3E3misW4G+1yfVLTyC6Zc+v
ra0CAwEAAaOCAQ4wggEKMAsGA1UdDwQEAwIFoDAJBgNVHRMEAjAAMBEGCWCGSAGG
+EIBAQQEAwIGQDAzBglghkgBhvhCAQ0EJhYkT3BlblNTTCBHZW5lcmF0ZWQgU2Vy
dmVyIENlcnRpZmljYXRlMB0GA1UdDgQWBBTlJW0+rw3dP0zyRRk51RTbfpzArTB0
BgNVHSMEbTBrgBT0p8DMkUavZPOR8if4yLJviocyc6FIpEYwRDELMAkGA1UEBhMC
REUxDzANBgNVBAgMBkhlc3NlbjEUMBIGA1UECgwLcHJpdmFjeWlkZWExDjAMBgNV
BAMMBUNBMDAxggkA+8jrrIPNEgcwEwYDVR0lBAwwCgYIKwYBBQUHAwEwDQYJKoZI
hvcNAQELBQADggEBAD/966oPjnosAnSr1yr8BIdJObQlYGST+jTmJh2N9pE0e30n
qbioSFcD6t7jt32kmFxnJVlb36wbIHx1OibZWiX3m/0Cy7dLTTL54ea5LsjMIF6t
BqXmipM8IEExVm0QZrspSACtWqOMDI1Ws5kNb1RUBFzRt4KJTDNQnnBIz+x/IX9L
7jo5QNIInum4KDq+pQuM8EK7zZLYSGtbvB+eDLpIpp1WxN4CrCE/YKjdOotCjfzF
lM7cf3G5JiuUQ3vDSQZ0sVmIlkEHJqnVW1MQ4pxOWjXn6xp/s6KFNuR1xstaDKce
FRBlRXxaazgPBajo7BXY3dBS0jwIaTYhSQxzRks=
-----END CERTIFICATE-----
