Certificate:
    Data:
        Version: 3 (0x2)
        Serial Number: 268435670 (0x100000d6)
    Signature Algorithm: sha256WithRSAEncryption
        Issuer: C=DE, ST=Hessen, O=privacyidea, CN=CA001
        Validity
            Not Before: May 29 10:31:27 2018 GMT
            Not After : May 29 10:31:27 2019 GMT
        Subject: OU=realm1, CN=cornelius/emailAddress=user@localhost.localdomain
        Subject Public Key Info:
            Public Key Algorithm: rsaEncryption
                Public-Key: (2048 bit)
                Modulus:
                    00:b1:73:47:fb:06:9c:b7:0c:8c:ec:ba:1f:bf:f9:
                    7b:99:a4:32:5e:72:fc:43:7c:7a:81:56:f5:15:02:
                    8d:6e:7c:68:9a:2a:72:cc:73:65:96:ce:72:10:dd:
                    41:bf:61:71:53:1c:3a:b3:76:e2:ef:b4:19:3a:9d:
                    23:8c:a6:cb:c8:f7:ca:5a:49:2e:90:1c:2b:e1:ba:
                    cf:4a:d7:db:e0:77:eb:bc:bf:69:8e:aa:57:be:b3:
                    7f:65:9f:f2:c8:55:d7:44:65:12:ff:6c:30:f7:3d:
                    ae:ab:4b:7c:99:66:c0:a2:d3:cc:07:4a:93:24:c5:
                    51:8d:7a:b0:a5:3e:8d:80:6e:76:66:4b:ae:54:2a:
                    1e:9e:06:93:29:ce:c7:72:a9:c9:d1:a5:66:da:7f:
                    aa:24:71:20:17:da:57:c0:4b:c7:a5:0d:58:fe:1c:
                    d1:38:be:e5:45:95:f8:57:e9:2b:02:e5:ec:db:62:
                    07:73:35:16:77:db:58:5c:6a:41:7b:97:bb:cb:8d:
                    62:51:36:24:c4:39:68:64:9d:c5:be:b6:c7:13:0a:
                    21:a7:37:81:af:18:54:5c:9d:62:70:79:1a:e4:04:
                    3f:d0:1a:3b:54:d4:44:70:26:ec:97:b1:d8:04:d3:
                    69:0b:3e:50:8d:70:f9:35:55:d8:a7:ea:15:94:66:
                    72:59
                Exponent: 65537 (0x10001)
        X509v3 extensions:
            X509v3 Key Usage: 
                Digital Signature, Key Encipherment
            X509v3 Basic Constraints: 
                CA:FALSE
            Netscape Cert Type: 
                SSL Server
            Netscape Comment: 
                OpenSSL Generated Server Certificate
            X509v3 Subject Key Identifier: 
                BF:37:69:4E:23:F3:A7:9D:E6:D4:12:B1:09:D6:5E:FD:87:7D:15:65
            X509v3 Authority Key Identifier: 
                keyid:F4:A7:C0:CC:91:46:AF:64:F3:91:F2:27:F8:C8:B2:6F:8A:87:32:73
                DirName:/C=DE/ST=Hessen/O=privacyidea/CN=CA001
                serial:FB:C8:EB:AC:83:CD:12:07

            X509v3 Extended Key Usage: 
                TLS Web Server Authentication
    Signature Algorithm: sha256WithRSAEncryption
         7d:61:12:39:63:7d:d0:44:c2:7e:92:d4:37:98:c7:38:a1:b1:
         63:06:16:14:87:04:30:5d:3a:f0:80:25:a2:78:66:05:bf:e9:
         b1:24:af:76:0f:3e:3c:7c:b6:48:34:69:57:65:1b:72:d6:9d:
         84:ba:8b:8f:6a:40:4b:dd:fb:fd:1d:24:1c:b4:db:28:93:81:
         80:da:ff:da:57:a0:4a:8c:68:e4:e9:62:c6:4c:e5:ad:7a:9f:
         78:70:5a:6f:0c:4c:27:d8:45:d9:7b:87:01:b2:1c:20:f0:42:
         f9:35:ec:2f:b3:5c:14:1d:74:b7:f7:ad:b8:8e:cf:0c:1d:3a:
         b5:7b:97:ef:eb:4e:68:20:b7:52:a1:87:9d:18:a4:7c:3f:9b:
         62:eb:51:96:bd:2f:ae:92:af:71:7a:0a:ce:03:f8:3c:57:fb:
         cf:3a:b0:de:5c:4f:d9:bb:91:c4:74:1e:47:d1:18:64:53:1c:
         c7:20:51:f8:ce:86:68:83:8e:f7:ae:b3:d0:32:81:5d:85:c5:
         83:53:bb:5b:b2:d5:5b:f1:50:34:c0:8f:b9:92:35:53:df:8a:
         78:27:40:cb:af:83:9a:76:52:e2:94:dd:57:c9:dd:f3:d0:09:
         9f:c4:7c:1b:c9:a2:79:89:76:1e:45:83:52:fd:50:1c:63:eb:
         f0:fe:7f:4e
-----BEGIN CERTIFICATE-----
MIIEIjCCAwqgAwIBAgIEEAAA1jANBgkqhkiG9w0BAQsFADBEMQswCQYDVQQGEwJE
RTEPMA0GA1UECAwGSGVzc2VuMRQwEgYDVQQKDAtwcml2YWN5aWRlYTEOMAwGA1UE
AwwFQ0EwMDEwHhcNMTgwNTI5MTAzMTI3WhcNMTkwNTI5MTAzMTI3WjBQMQ8wDQYD
VQQLDAZyZWFsbTExEjAQBgNVBAMMCWNvcm5lbGl1czEpMCcGCSqGSIb3DQEJARYa
dXNlckBsb2NhbGhvc3QubG9jYWxkb21haW4wggEiMA0GCSqGSIb3DQEBAQUAA4IB
DwAwggEKAoIBAQCxc0f7Bpy3DIzsuh+/+XuZpDJecvxDfHqBVvUVAo1ufGiaKnLM
c2WWznIQ3UG/YXFTHDqzduLvtBk6nSOMpsvI98paSS6QHCvhus9K19vgd+u8v2mO
qle+s39ln/LIVddEZRL/bDD3Pa6rS3yZZsCi08wHSpMkxVGNerClPo2AbnZmS65U
Kh6eBpMpzsdyqcnRpWbaf6okcSAX2lfAS8elDVj+HNE4vuVFlfhX6SsC5ezbYgdz
NRZ321hcakF7l7vLjWJRNiTEOWhkncW+tscTCiGnN4GvGFRcnWJweRrkBD/QGjtU
1ERwJuyXsdgE02kLPlCNcPk1Vdin6hWUZnJZAgMBAAGjggEOMIIBCjALBgNVHQ8E
BAMCBaAwCQYDVR0TBAIwADARBglghkgBhvhCAQEEBAMCBkAwMwYJYIZIAYb4QgEN
BCYWJE9wZW5TU0wgR2VuZXJhdGVkIFNlcnZlciBDZXJ0aWZpY2F0ZTAdBgNVHQ4E
FgQUvzdpTiPzp53m1BKxCdZe/Yd9FWUwdAYDVR0jBG0wa4AU9KfAzJFGr2TzkfIn
+Miyb4qHMnOhSKRGMEQxCzAJBgNVBAYTAkRFMQ8wDQYDVQQIDAZIZXNzZW4xFDAS
BgNVBAoMC3ByaXZhY3lpZGVhMQ4wDAYDVQQDDAVDQTAwMYIJAPvI66yDzRIHMBMG
A1UdJQQMMAoGCCsGAQUFBwMBMA0GCSqGSIb3DQEBCwUAA4IBAQB9YRI5Y33QRMJ+
ktQ3mMc4obFjBhYUhwQwXTrwgCWieGYFv+mxJK92Dz48fLZINGlXZRty1p2EuouP
akBL3fv9HSQctNsok4GA2v/aV6BKjGjk6WLGTOWtep94cFpvDEwn2EXZe4cBshwg
8EL5Newvs1wUHXS39624js8MHTq1e5fv605oILdSoYedGKR8P5ti61GWvS+ukq9x
egrOA/g8V/vPOrDeXE/Zu5HEdB5H0RhkUxzHIFH4zoZog473rrPQMoFdhcWDU7tb
stVb8VA0wI+5kjVT34p4J0DLr4OadlLilN1Xyd3z0AmfxHwbyaJ5iXYeRYNS/VAc
Y+vw/n9O
-----END CERTIFICATE-----
