Certificate:
    Data:
        Version: 3 (0x2)
        Serial Number: 268435685 (0x100000e5)
    Signature Algorithm: sha256WithRSAEncryption
        Issuer: C=DE, ST=Hessen, O=privacyidea, CN=CA001
        Validity
            Not Before: Sep  7 14:03:31 2017 GMT
            Not After : Sep  7 14:03:31 2018 GMT
        Subject: CN=Steve Test/emailAddress=steve@openssl.org
        Subject Public Key Info:
            Public Key Algorithm: rsaEncryption
                Public-Key: (2048 bit)
                Modulus:
                    00:d2:81:89:20:51:48:0f:73:f4:11:32:24:d5:1f:
                    1c:fd:5c:f5:b6:e6:c5:f0:52:81:dc:d2:af:66:4a:
                    7c:93:31:61:5c:af:d1:6d:06:70:03:60:7c:72:0c:
                    88:dd:49:cd:9e:02:6c:d2:5a:d7:53:0f:f3:da:be:
                    69:64:b5:0f:0c:00:e3:b3:50:47:a3:b3:9b:ba:13:
                    50:d6:58:5a:4b:ab:39:e0:11:ca:0a:27:67:03:78:
                    22:66:6d:92:1e:1b:5c:49:ae:e6:6b:d1:8e:3b:9d:
                    06:d3:c6:ac:4d:53:43:10:ab:e8:96:c1:87:82:97:
                    99:8f:20:d3:99:12:37:31:84:e1:8a:ff:29:03:5f:
                    22:90:3e:7f:9b:e0:20:c1:ad:dc:ae:4c:39:1a:31:
                    96:17:02:8c:b2:d9:b4:0d:20:12:9b:7d:86:54:fd:
                    33:fd:c1:2a:62:46:f8:60:96:cf:6e:01:6f:22:df:
                    13:47:e7:97:ec:05:72:23:a3:62:f8:fa:ef:ac:9c:
                    72:f0:37:cb:2f:37:cf:90:a8:27:51:86:c6:d7:78:
                    08:8f:7e:25:a2:15:70:a2:fb:1c:b6:15:5e:a0:97:
                    8b:81:4c:09:28:8a:27:3b:94:bc:71:db:5b:71:37:
                    9a:2b:16:e0:6f:b5:c9:f5:4b:4f:20:ba:65:cf:af:
                    ad:ad
                Exponent: 65537 (0x10001)
        X509v3 extensions:
            X509v3 Key Usage: 
                Digital Signature, Key Encipherment
            X509v3 Basic Constraints: 
                CA:FALSE
            Netscape Cert Type: 
                SSL Server
            Netscape Comment: 
                OpenSSL Generated Server Certificate
            X509v3 Subject Key Identifier: 
                E5:25:6D:3E:AF:0D:DD:3F:4C:F2:45:19:39:D5:14:DB:7E:9C:C0:AD
            X509v3 Authority Key Identifier: 
                keyid:F4:A7:C0:CC:91:46:AF:64:F3:91:F2:27:F8:C8:B2:6F:8A:87:32:73
                DirName:/C=DE/ST=Hessen/O=privacyidea/CN=CA001
                serial:FB:C8:EB:AC:83:CD:12:07

            X509v3 Extended Key Usage: 
                TLS Web Server Authentication
    Signature Algorithm: sha256WithRSAEncryption
         29:64:9b:e3:46:37:62:c8:dc:31:3a:59:96:21:10:26:48:3b:
         ea:66:a4:05:44:a1:60:a4:69:2d:32:91:a7:c5:ad:b3:8f:3a:
         8a:42:3b:c8:3e:f2:43:f0:b1:fa:9b:85:23:fb:36:a9:66:43:
         7d:ea:33:a3:7b:45:4d:d2:6f:e3:78:90:e1:6e:86:aa:3e:c0:
         31:f3:77:5e:9b:2a:c1:e6:67:d2:67:0d:88:9b:2c:9d:c2:c5:
         c0:16:c0:f1:98:1e:e5:83:f3:84:03:7e:b5:6f:43:32:e4:70:
         22:40:e5:16:6a:91:e7:a0:e5:85:d6:94:8d:06:84:ed:db:43:
         35:a4:53:34:d9:bc:1d:b7:bc:cc:f3:db:41:ca:3d:cd:67:54:
         da:8b:59:f3:b7:a5:0b:43:28:bc:99:46:17:ab:95:ef:eb:12:
         bf:9e:69:25:f3:66:74:d7:71:14:c7:b7:6f:07:11:f2:29:ab:
         fb:1e:d2:28:d0:ee:91:99:49:1f:7a:73:ef:03:aa:68:f2:ef:
         29:67:a4:5a:98:92:33:56:2a:02:31:97:58:b2:5a:aa:ca:bc:
         e9:ad:fe:32:a3:a2:49:73:c2:8c:24:60:9f:0c:4b:2d:89:57:
         ae:e2:a8:65:ce:61:2f:9d:a6:43:38:16:da:2a:06:5e:77:7b:
         bf:33:60:b7
-----BEGIN CERTIFICATE-----
MIIECTCCAvGgAwIBAgIEEAAA5TANBgkqhkiG9w0BAQsFADBEMQswCQYDVQQGEwJE
RTEPMA0GA1UECAwGSGVzc2VuMRQwEgYDVQQKDAtwcml2YWN5aWRlYTEOMAwGA1UE
AwwFQ0EwMDEwHhcNMTcwOTA3MTQwMzMxWhcNMTgwOTA3MTQwMzMxWjA3MRMwEQYD
VQQDDApTdGV2ZSBUZXN0MSAwHgYJKoZIhvcNAQkBFhFzdGV2ZUBvcGVuc3NsLm9y
ZzCCASIwDQYJKoZIhvcNAQEBBQADggEPADCCAQoCggEBANKBiSBRSA9z9BEyJNUf
HP1c9bbmxfBSgdzSr2ZKfJMxYVyv0W0GcANgfHIMiN1JzZ4CbNJa11MP89q+aWS1
DwwA47NQR6Ozm7oTUNZYWkurOeARygonZwN4ImZtkh4bXEmu5mvRjjudBtPGrE1T
QxCr6JbBh4KXmY8g05kSNzGE4Yr/KQNfIpA+f5vgIMGt3K5MORoxlhcCjLLZtA0g
Ept9hlT9M/3BKmJG+GCWz24BbyLfE0fnl+wFciOjYvj676yccvA3yy83z5CoJ1GG
xtd4CI9+JaIVcKL7HLYVXqCXi4FMCSiKJzuUvHHbW3E3misW4G+1yfVLTyC6Zc+v
ra0CAwEAAaOCAQ4wggEKMAsGA1UdDwQEAwIFoDAJBgNVHRMEAjAAMBEGCWCGSAGG
+EIBAQQEAwIGQDAzBglghkgBhvhCAQ0EJhYkT3BlblNTTCBHZW5lcmF0ZWQgU2Vy
dmVyIENlcnRpZmljYXRlMB0GA1UdDgQWBBTlJW0+rw3dP0zyRRk51RTbfpzArTB0
BgNVHSMEbTBrgBT0p8DMkUavZPOR8if4yLJviocyc6FIpEYwRDELMAkGA1UEBhMC
REUxDzANBgNVBAgMBkhlc3NlbjEUMBIGA1UECgwLcHJpdmFjeWlkZWExDjAMBgNV
BAMMBUNBMDAxggkA+8jrrIPNEgcwEwYDVR0lBAwwCgYIKwYBBQUHAwEwDQYJKoZI
hvcNAQELBQADggEBAClkm+NGN2LI3DE6WZYhECZIO+pmpAVEoWCkaS0ykafFrbOP
OopCO8g+8kPwsfqbhSP7NqlmQ33qM6N7RU3Sb+N4kOFuhqo+wDHzd16bKsHmZ9Jn
DYibLJ3CxcAWwPGYHuWD84QDfrVvQzLkcCJA5RZqkeeg5YXWlI0GhO3bQzWkUzTZ
vB23vMzz20HKPc1nVNqLWfO3pQtDKLyZRherle/rEr+eaSXzZnTXcRTHt28HEfIp
q/se0ijQ7pGZSR96c+8Dqmjy7ylnpFqYkjNWKgIxl1iyWqrKvOmt/jKjoklzwowk
YJ8MSy2JV67iqGXOYS+dpkM4FtoqBl53e78zYLc=
-----END CERTIFICATE-----
