Certificate:
    Data:
        Version: 3 (0x2)
        Serial Number: 268435674 (0x100000da)
    Signature Algorithm: sha256WithRSAEncryption
        Issuer: C=DE, ST=Hessen, O=privacyidea, CN=CA001
        Validity
            Not Before: May 29 10:47:40 2018 GMT
            Not After : May 29 10:47:40 2019 GMT
        Subject: CN=Steve Test/emailAddress=steve@openssl.org
        Subject Public Key Info:
            Public Key Algorithm: rsaEncryption
                Public-Key: (2048 bit)
                Modulus:
                    00:d2:81:89:20:51:48:0f:73:f4:11:32:24:d5:1f:
                    1c:fd:5c:f5:b6:e6:c5:f0:52:81:dc:d2:af:66:4a:
                    7c:93:31:61:5c:af:d1:6d:06:70:03:60:7c:72:0c:
                    88:dd:49:cd:9e:02:6c:d2:5a:d7:53:0f:f3:da:be:
                    69:64:b5:0f:0c:00:e3:b3:50:47:a3:b3:9b:ba:13:
                    50:d6:58:5a:4b:ab:39:e0:11:ca:0a:27:67:03:78:
                    22:66:6d:92:1e:1b:5c:49:ae:e6:6b:d1:8e:3b:9d:
                    06:d3:c6:ac:4d:53:43:10:ab:e8:96:c1:87:82:97:
                    99:8f:20:d3:99:12:37:31:84:e1:8a:ff:29:03:5f:
                    22:90:3e:7f:9b:e0:20:c1:ad:dc:ae:4c:39:1a:31:
                    96:17:02:8c:b2:d9:b4:0d:20:12:9b:7d:86:54:fd:
                    33:fd:c1:2a:62:46:f8:60:96:cf:6e:01:6f:22:df:
                    13:47:e7:97:ec:05:72:23:a3:62:f8:fa:ef:ac:9c:
                    72:f0:37:cb:2f:37:cf:90:a8:27:51:86:c6:d7:78:
                    08:8f:7e:25:a2:15:70:a2:fb:1c:b6:15:5e:a0:97:
                    8b:81:4c:09:28:8a:27:3b:94:bc:71:db:5b:71:37:
                    9a:2b:16:e0:6f:b5:c9:f5:4b:4f:20:ba:65:cf:af:
                    ad:ad
                Exponent: 65537 (0x10001)
        X509v3 extensions:
            X509v3 Key Usage: 
                Digital Signature, Key Encipherment
            X509v3 Basic Constraints: 
                CA:FALSE
            Netscape Cert Type: 
                SSL Server
            Netscape Comment: 
                OpenSSL Generated Server Certificate
            X509v3 Subject Key Identifier: 
                E5:25:6D:3E:AF:0D:DD:3F:4C:F2:45:19:39:D5:14:DB:7E:9C:C0:AD
            X509v3 Authority Key Identifier: 
                keyid:F4:A7:C0:CC:91:46:AF:64:F3:91:F2:27:F8:C8:B2:6F:8A:87:32:73
                DirName:/C=DE/ST=Hessen/O=privacyidea/CN=CA001
                serial:FB:C8:EB:AC:83:CD:12:07

            X509v3 Extended Key Usage: 
                TLS Web Server Authentication
    Signature Algorithm: sha256WithRSAEncryption
         60:27:82:c0:47:1c:60:1d:d2:db:b1:96:20:bf:e5:c4:07:3d:
         72:67:d5:4b:84:70:71:3a:38:c0:eb:17:07:5e:07:66:b1:3e:
         87:00:9b:e2:f3:87:62:fc:f9:13:b2:a4:c3:f9:74:84:dd:01:
         e1:82:c0:8f:59:1f:01:b4:f4:fb:be:ef:9c:d1:df:63:46:51:
         26:51:aa:fc:af:0d:86:53:ba:68:69:d9:8c:b7:d7:2c:fd:3d:
         e0:c8:61:5e:e3:b9:47:22:20:16:6f:3d:2f:88:86:e1:bb:75:
         de:f5:0b:62:0b:ed:cf:33:f4:81:53:f6:50:54:72:aa:69:b3:
         4f:68:ca:92:b7:a1:e8:bc:5a:b5:1d:01:b7:7d:11:01:dc:67:
         ad:7f:5b:de:f9:ae:c1:61:63:9f:3d:1f:de:ea:9f:9f:3a:ac:
         df:f5:cd:5a:dc:27:ab:2a:e6:aa:eb:04:80:85:c5:98:29:b0:
         10:08:a7:77:c5:3a:65:79:af:7c:1e:0e:da:e1:21:b0:93:0e:
         ff:e9:c2:de:a2:61:01:2a:e3:bb:23:c0:bf:ba:8d:d5:56:bd:
         7c:fb:35:4e:38:e1:4b:19:69:9e:7f:52:d8:39:f5:3d:d3:b8:
         43:5a:c1:8b:64:15:24:d1:08:4d:d1:83:39:0c:5d:87:11:e0:
         18:cc:a9:ff
-----BEGIN CERTIFICATE-----
MIIECTCCAvGgAwIBAgIEEAAA2jANBgkqhkiG9w0BAQsFADBEMQswCQYDVQQGEwJE
RTEPMA0GA1UECAwGSGVzc2VuMRQwEgYDVQQKDAtwcml2YWN5aWRlYTEOMAwGA1UE
AwwFQ0EwMDEwHhcNMTgwNTI5MTA0NzQwWhcNMTkwNTI5MTA0NzQwWjA3MRMwEQYD
VQQDDApTdGV2ZSBUZXN0MSAwHgYJKoZIhvcNAQkBFhFzdGV2ZUBvcGVuc3NsLm9y
ZzCCASIwDQYJKoZIhvcNAQEBBQADggEPADCCAQoCggEBANKBiSBRSA9z9BEyJNUf
HP1c9bbmxfBSgdzSr2ZKfJMxYVyv0W0GcANgfHIMiN1JzZ4CbNJa11MP89q+aWS1
DwwA47NQR6Ozm7oTUNZYWkurOeARygonZwN4ImZtkh4bXEmu5mvRjjudBtPGrE1T
QxCr6JbBh4KXmY8g05kSNzGE4Yr/KQNfIpA+f5vgIMGt3K5MORoxlhcCjLLZtA0g
Ept9hlT9M/3BKmJG+GCWz24BbyLfE0fnl+wFciOjYvj676yccvA3yy83z5CoJ1GG
xtd4CI9+JaIVcKL7HLYVXqCXi4FMCSiKJzuUvHHbW3E3misW4G+1yfVLTyC6Zc+v
ra0CAwEAAaOCAQ4wggEKMAsGA1UdDwQEAwIFoDAJBgNVHRMEAjAAMBEGCWCGSAGG
+EIBAQQEAwIGQDAzBglghkgBhvhCAQ0EJhYkT3BlblNTTCBHZW5lcmF0ZWQgU2Vy
dmVyIENlcnRpZmljYXRlMB0GA1UdDgQWBBTlJW0+rw3dP0zyRRk51RTbfpzArTB0
BgNVHSMEbTBrgBT0p8DMkUavZPOR8if4yLJviocyc6FIpEYwRDELMAkGA1UEBhMC
REUxDzANBgNVBAgMBkhlc3NlbjEUMBIGA1UECgwLcHJpdmFjeWlkZWExDjAMBgNV
BAMMBUNBMDAxggkA+8jrrIPNEgcwEwYDVR0lBAwwCgYIKwYBBQUHAwEwDQYJKoZI
hvcNAQELBQADggEBAGAngsBHHGAd0tuxliC/5cQHPXJn1UuEcHE6OMDrFwdeB2ax
PocAm+Lzh2L8+ROypMP5dITdAeGCwI9ZHwG09Pu+75zR32NGUSZRqvyvDYZTumhp
2Yy31yz9PeDIYV7juUciIBZvPS+IhuG7dd71C2IL7c8z9IFT9lBUcqpps09oypK3
oei8WrUdAbd9EQHcZ61/W975rsFhY589H97qn586rN/1zVrcJ6sq5qrrBICFxZgp
sBAIp3fFOmV5r3weDtrhIbCTDv/pwt6iYQEq47sjwL+6jdVWvXz7NU444UsZaZ5/
Utg59T3TuENawYtkFSTRCE3RgzkMXYcR4BjMqf8=
-----END CERTIFICATE-----
