Certificate:
    Data:
        Version: 3 (0x2)
        Serial Number: 268435683 (0x100000e3)
    Signature Algorithm: sha256WithRSAEncryption
        Issuer: C=DE, ST=Hessen, O=privacyidea, CN=CA001
        Validity
            Not Before: Jan 22 13:39:19 2018 GMT
            Not After : Jan 22 13:39:19 2019 GMT
        Subject: OU=realm1, CN=cornelius/emailAddress=user@localhost.localdomain
        Subject Public Key Info:
            Public Key Algorithm: rsaEncryption
                Public-Key: (2048 bit)
                Modulus:
                    00:ed:59:36:9f:4d:a4:cb:c6:34:00:3f:4c:24:5e:
                    86:2a:a2:d9:3a:e1:6e:41:66:62:6e:33:f3:32:be:
                    a1:93:fd:79:ac:68:91:14:30:a9:15:e9:ef:18:ac:
                    4e:a9:19:d7:71:53:7b:2d:55:f0:a1:f7:94:d1:54:
                    1b:c9:8b:a7:86:99:ce:b2:8c:dc:10:e6:03:ab:29:
                    b6:8d:29:bb:2c:96:96:a4:31:e9:21:4d:5d:e1:79:
                    ad:3b:a7:77:05:06:db:86:a9:c3:2b:5b:7b:91:03:
                    3c:d9:48:7f:63:5a:01:97:f3:41:b7:7e:68:d8:dd:
                    31:e8:7c:cd:ac:1a:ec:43:76:1f:70:7c:75:cd:f7:
                    5e:d0:8a:49:6e:22:61:de:ea:54:79:84:20:24:4f:
                    ae:07:6c:18:1b:7a:69:d9:bd:d3:23:7b:9a:d5:82:
                    1e:37:6c:b2:44:95:c9:8e:a6:1f:26:8b:fc:be:db:
                    b2:ae:f6:49:d0:99:d6:61:c6:56:ac:4e:d4:01:76:
                    48:e2:08:c4:74:3f:2e:c2:bc:64:2e:e4:f7:a5:80:
                    31:fb:26:66:fa:c1:83:c5:a6:5e:d1:24:68:d2:36:
                    f8:2b:5e:6b:ca:46:23:a1:7c:3c:67:e7:f7:db:94:
                    43:5d:a4:72:d6:99:c6:b7:05:74:9b:68:ab:3b:bd:
                    75:b7
                Exponent: 65537 (0x10001)
        X509v3 extensions:
            X509v3 Key Usage: 
                Digital Signature, Key Encipherment
            X509v3 Basic Constraints: 
                CA:FALSE
            Netscape Cert Type: 
                SSL Server
            Netscape Comment: 
                OpenSSL Generated Server Certificate
            X509v3 Subject Key Identifier: 
                2D:D5:7B:39:D4:C5:45:73:4C:53:D6:27:F7:BB:49:20:C4:1F:0C:19
            X509v3 Authority Key Identifier: 
                keyid:F4:A7:C0:CC:91:46:AF:64:F3:91:F2:27:F8:C8:B2:6F:8A:87:32:73
                DirName:/C=DE/ST=Hessen/O=privacyidea/CN=CA001
                serial:FB:C8:EB:AC:83:CD:12:07

            X509v3 Extended Key Usage: 
                TLS Web Server Authentication
    Signature Algorithm: sha256WithRSAEncryption
         88:bf:23:17:e4:49:71:d8:c4:3d:13:c1:61:9f:8b:74:7d:06:
         30:00:14:2c:e5:2d:68:04:50:8a:54:de:9c:46:91:37:24:17:
         9e:88:4c:1e:7a:df:92:0d:64:ae:70:4c:d0:e8:79:ea:6b:90:
         96:7d:a3:90:63:f9:23:c9:c6:16:33:81:09:66:78:3d:6c:96:
         70:94:b5:3f:c9:bb:15:be:b6:07:06:d9:60:34:03:f2:ee:3a:
         83:3d:9d:ec:c8:3f:8e:93:ed:2b:ca:77:e5:cf:cb:25:36:40:
         bc:8a:d1:d9:0d:c9:dc:6e:ee:c0:c4:09:1c:73:cc:07:29:9d:
         6b:3a:06:6e:da:9b:ce:76:6a:c8:7a:5d:13:60:0f:a4:97:b6:
         f0:db:2c:52:a4:f9:cc:c0:aa:d6:fc:b9:ce:69:07:11:fb:96:
         41:53:ad:52:39:b4:42:05:03:1a:75:69:fb:42:54:07:59:3f:
         83:01:fa:0a:36:e3:21:98:bd:53:3c:67:68:4b:d4:b6:52:86:
         0a:85:41:3a:cd:ee:91:21:32:31:04:a6:f2:f7:5d:d1:ec:4f:
         ff:77:c3:b9:8b:c4:0e:41:ed:bf:5a:c4:13:f7:7b:84:20:f0:
         8c:2e:f6:81:62:85:d8:d6:8e:99:b5:a3:c5:07:db:fd:06:6d:
         93:d8:f3:d8
-----BEGIN CERTIFICATE-----
MIIEIjCCAwqgAwIBAgIEEAAA4zANBgkqhkiG9w0BAQsFADBEMQswCQYDVQQGEwJE
RTEPMA0GA1UECAwGSGVzc2VuMRQwEgYDVQQKDAtwcml2YWN5aWRlYTEOMAwGA1UE
AwwFQ0EwMDEwHhcNMTgwMTIyMTMzOTE5WhcNMTkwMTIyMTMzOTE5WjBQMQ8wDQYD
VQQLDAZyZWFsbTExEjAQBgNVBAMMCWNvcm5lbGl1czEpMCcGCSqGSIb3DQEJARYa
dXNlckBsb2NhbGhvc3QubG9jYWxkb21haW4wggEiMA0GCSqGSIb3DQEBAQUAA4IB
DwAwggEKAoIBAQDtWTafTaTLxjQAP0wkXoYqotk64W5BZmJuM/MyvqGT/XmsaJEU
MKkV6e8YrE6pGddxU3stVfCh95TRVBvJi6eGmc6yjNwQ5gOrKbaNKbsslpakMekh
TV3hea07p3cFBtuGqcMrW3uRAzzZSH9jWgGX80G3fmjY3THofM2sGuxDdh9wfHXN
917QikluImHe6lR5hCAkT64HbBgbemnZvdMje5rVgh43bLJElcmOph8mi/y+27Ku
9knQmdZhxlasTtQBdkjiCMR0Py7CvGQu5PelgDH7Jmb6wYPFpl7RJGjSNvgrXmvK
RiOhfDxn5/fblENdpHLWmca3BXSbaKs7vXW3AgMBAAGjggEOMIIBCjALBgNVHQ8E
BAMCBaAwCQYDVR0TBAIwADARBglghkgBhvhCAQEEBAMCBkAwMwYJYIZIAYb4QgEN
BCYWJE9wZW5TU0wgR2VuZXJhdGVkIFNlcnZlciBDZXJ0aWZpY2F0ZTAdBgNVHQ4E
FgQULdV7OdTFRXNMU9Yn97tJIMQfDBkwdAYDVR0jBG0wa4AU9KfAzJFGr2TzkfIn
+Miyb4qHMnOhSKRGMEQxCzAJBgNVBAYTAkRFMQ8wDQYDVQQIDAZIZXNzZW4xFDAS
BgNVBAoMC3ByaXZhY3lpZGVhMQ4wDAYDVQQDDAVDQTAwMYIJAPvI66yDzRIHMBMG
A1UdJQQMMAoGCCsGAQUFBwMBMA0GCSqGSIb3DQEBCwUAA4IBAQCIvyMX5Elx2MQ9
E8Fhn4t0fQYwABQs5S1oBFCKVN6cRpE3JBeeiEweet+SDWSucEzQ6Hnqa5CWfaOQ
Y/kjycYWM4EJZng9bJZwlLU/ybsVvrYHBtlgNAPy7jqDPZ3syD+Ok+0rynflz8sl
NkC8itHZDcncbu7AxAkcc8wHKZ1rOgZu2pvOdmrIel0TYA+kl7bw2yxSpPnMwKrW
/LnOaQcR+5ZBU61SObRCBQMadWn7QlQHWT+DAfoKNuMhmL1TPGdoS9S2UoYKhUE6
ze6RITIxBKby913R7E//d8O5i8QOQe2/WsQT93uEIPCMLvaBYoXY1o6ZtaPFB9v9
Bm2T2PPY
-----END CERTIFICATE-----
