Certificate:
    Data:
        Version: 3 (0x2)
        Serial Number: 268435682 (0x100000e2)
    Signature Algorithm: sha256WithRSAEncryption
        Issuer: C=DE, ST=Hessen, O=privacyidea, CN=CA001
        Validity
            Not Before: Jan 22 13:39:18 2018 GMT
            Not After : Jan 22 13:39:18 2019 GMT
        Subject: C=DE, ST=Hessen, O=privacyidea, CN=requester.localdomain
        Subject Public Key Info:
            Public Key Algorithm: rsaEncryption
                Public-Key: (2048 bit)
                Modulus:
                    00:cd:be:14:4f:fa:ce:01:3f:42:22:1b:1d:9c:af:
                    dd:92:d2:7f:db:6c:b7:3e:39:43:43:6b:13:03:f1:
                    05:f4:07:74:bc:76:69:28:0b:af:19:8e:d7:fc:e3:
                    cd:c6:58:f2:ca:7f:08:6d:53:fc:07:02:44:24:c6:
                    b4:34:4c:8c:04:fe:33:0e:40:e2:20:ba:02:73:5a:
                    f7:f5:4f:63:6e:cc:c6:b6:df:54:1d:37:39:7d:51:
                    36:26:5f:bd:dc:3f:a8:8b:6b:a2:ae:b6:9d:d6:21:
                    e7:df:41:b8:7a:28:2a:68:48:ca:a8:2d:ed:e1:e9:
                    46:5e:5a:72:6d:b4:84:38:87:91:fd:94:11:0b:28:
                    84:c6:c2:2f:2a:fb:01:f9:36:7a:09:75:d1:33:88:
                    3c:73:41:5b:c8:bf:94:89:70:a1:f0:c0:b9:2e:50:
                    53:1e:b1:17:64:69:f4:2d:81:e0:a9:0d:0e:32:e9:
                    ba:55:8a:85:f1:1b:6f:49:79:b4:7f:88:c3:0d:3e:
                    54:88:9b:3d:1f:38:8c:04:f3:ee:6a:63:2b:f5:c6:
                    db:b4:83:aa:c4:78:41:3a:7d:4b:e1:c8:3e:71:ca:
                    1b:61:59:ea:c6:c4:ca:32:5e:c9:e9:bf:12:29:e6:
                    c6:c3:63:fe:a0:55:da:7a:f1:60:98:4d:26:ed:fa:
                    70:2d
                Exponent: 65537 (0x10001)
        X509v3 extensions:
            X509v3 Key Usage: 
                Digital Signature, Key Encipherment
            X509v3 Basic Constraints: 
                CA:FALSE
            Netscape Cert Type: 
                SSL Server
            Netscape Comment: 
                OpenSSL Generated Server Certificate
            X509v3 Subject Key Identifier: 
                53:3F:ED:5D:09:07:B3:65:7B:AB:45:C9:24:5B:09:77:80:0A:96:ED
            X509v3 Authority Key Identifier: 
                keyid:F4:A7:C0:CC:91:46:AF:64:F3:91:F2:27:F8:C8:B2:6F:8A:87:32:73
                DirName:/C=DE/ST=Hessen/O=privacyidea/CN=CA001
                serial:FB:C8:EB:AC:83:CD:12:07

            X509v3 Extended Key Usage: 
                TLS Web Server Authentication
    Signature Algorithm: sha256WithRSAEncryption
         21:40:e7:57:dc:db:f8:b1:30:df:b4:69:b5:17:1f:de:3f:72:
         44:b8:03:00:e1:a4:3c:31:70:92:5c:e1:c0:0d:3e:9e:fd:b6:
         8b:a2:39:fc:2b:01:08:4d:2f:9e:0e:57:8c:7f:dd:f7:4a:cf:
         78:4c:2d:3d:23:e1:9d:49:68:6f:a4:3c:6c:d9:8d:44:d5:ce:
         51:e3:b5:44:76:61:bd:8d:00:c8:ac:09:94:24:1c:ac:90:39:
         05:59:2d:b4:33:d2:97:a4:b4:ff:a2:d1:90:47:cb:e1:31:82:
         d6:5e:b8:3d:c1:14:5f:f6:3e:da:fa:fa:0c:29:b2:69:99:cd:
         ef:ce:23:05:5d:91:ff:57:67:7f:c8:9f:20:64:a7:fa:e8:c1:
         0d:9e:26:56:4b:fb:d0:f3:87:4f:93:63:bf:de:21:21:ae:55:
         3c:73:c9:ee:f0:cc:5f:51:45:e4:1a:26:3d:10:ef:c5:48:c9:
         0b:17:f3:94:7a:6a:1f:ce:77:75:54:40:7e:24:80:06:39:e1:
         93:c4:92:22:8a:c9:78:88:80:87:15:a9:c1:f3:46:b1:17:bd:
         71:4a:b6:b0:09:af:41:ca:c0:fe:53:57:ab:f7:8a:38:9e:79:
         88:d0:ca:e0:d7:44:07:64:d6:9b:b7:48:55:4a:7c:66:17:96:
         c0:ef:b2:d4
-----BEGIN CERTIFICATE-----
MIIEJjCCAw6gAwIBAgIEEAAA4jANBgkqhkiG9w0BAQsFADBEMQswCQYDVQQGEwJE
RTEPMA0GA1UECAwGSGVzc2VuMRQwEgYDVQQKDAtwcml2YWN5aWRlYTEOMAwGA1UE
AwwFQ0EwMDEwHhcNMTgwMTIyMTMzOTE4WhcNMTkwMTIyMTMzOTE4WjBUMQswCQYD
VQQGEwJERTEPMA0GA1UECAwGSGVzc2VuMRQwEgYDVQQKDAtwcml2YWN5aWRlYTEe
MBwGA1UEAwwVcmVxdWVzdGVyLmxvY2FsZG9tYWluMIIBIjANBgkqhkiG9w0BAQEF
AAOCAQ8AMIIBCgKCAQEAzb4UT/rOAT9CIhsdnK/dktJ/22y3PjlDQ2sTA/EF9Ad0
vHZpKAuvGY7X/OPNxljyyn8IbVP8BwJEJMa0NEyMBP4zDkDiILoCc1r39U9jbszG
tt9UHTc5fVE2Jl+93D+oi2uirrad1iHn30G4eigqaEjKqC3t4elGXlpybbSEOIeR
/ZQRCyiExsIvKvsB+TZ6CXXRM4g8c0FbyL+UiXCh8MC5LlBTHrEXZGn0LYHgqQ0O
Mum6VYqF8RtvSXm0f4jDDT5UiJs9HziMBPPuamMr9cbbtIOqxHhBOn1L4cg+ccob
YVnqxsTKMl7J6b8SKebGw2P+oFXaevFgmE0m7fpwLQIDAQABo4IBDjCCAQowCwYD
VR0PBAQDAgWgMAkGA1UdEwQCMAAwEQYJYIZIAYb4QgEBBAQDAgZAMDMGCWCGSAGG
+EIBDQQmFiRPcGVuU1NMIEdlbmVyYXRlZCBTZXJ2ZXIgQ2VydGlmaWNhdGUwHQYD
VR0OBBYEFFM/7V0JB7Nle6tFySRbCXeACpbtMHQGA1UdIwRtMGuAFPSnwMyRRq9k
85HyJ/jIsm+KhzJzoUikRjBEMQswCQYDVQQGEwJERTEPMA0GA1UECAwGSGVzc2Vu
MRQwEgYDVQQKDAtwcml2YWN5aWRlYTEOMAwGA1UEAwwFQ0EwMDGCCQD7yOusg80S
BzATBgNVHSUEDDAKBggrBgEFBQcDATANBgkqhkiG9w0BAQsFAAOCAQEAIUDnV9zb
+LEw37RptRcf3j9yRLgDAOGkPDFwklzhwA0+nv22i6I5/CsBCE0vng5XjH/d90rP
eEwtPSPhnUlob6Q8bNmNRNXOUeO1RHZhvY0AyKwJlCQcrJA5BVkttDPSl6S0/6LR
kEfL4TGC1l64PcEUX/Y+2vr6DCmyaZnN784jBV2R/1dnf8ifIGSn+ujBDZ4mVkv7
0POHT5Njv94hIa5VPHPJ7vDMX1FF5BomPRDvxUjJCxfzlHpqH853dVRAfiSABjnh
k8SSIorJeIiAhxWpwfNGsRe9cUq2sAmvQcrA/lNXq/eKOJ55iNDK4NdEB2TWm7dI
VUp8ZheWwO+y1A==
-----END CERTIFICATE-----
