Certificate:
    Data:
        Version: 3 (0x2)
        Serial Number: 268435667 (0x100000d3)
    Signature Algorithm: sha256WithRSAEncryption
        Issuer: C=DE, ST=Hessen, O=privacyidea, CN=CA001
        Validity
            Not Before: May 29 10:27:40 2018 GMT
            Not After : May 29 10:27:40 2019 GMT
        Subject: CN=Steve Test/emailAddress=steve@openssl.org
        Subject Public Key Info:
            Public Key Algorithm: rsaEncryption
                Public-Key: (2048 bit)
                Modulus:
                    00:d2:81:89:20:51:48:0f:73:f4:11:32:24:d5:1f:
                    1c:fd:5c:f5:b6:e6:c5:f0:52:81:dc:d2:af:66:4a:
                    7c:93:31:61:5c:af:d1:6d:06:70:03:60:7c:72:0c:
                    88:dd:49:cd:9e:02:6c:d2:5a:d7:53:0f:f3:da:be:
                    69:64:b5:0f:0c:00:e3:b3:50:47:a3:b3:9b:ba:13:
                    50:d6:58:5a:4b:ab:39:e0:11:ca:0a:27:67:03:78:
                    22:66:6d:92:1e:1b:5c:49:ae:e6:6b:d1:8e:3b:9d:
                    06:d3:c6:ac:4d:53:43:10:ab:e8:96:c1:87:82:97:
                    99:8f:20:d3:99:12:37:31:84:e1:8a:ff:29:03:5f:
                    22:90:3e:7f:9b:e0:20:c1:ad:dc:ae:4c:39:1a:31:
                    96:17:02:8c:b2:d9:b4:0d:20:12:9b:7d:86:54:fd:
                    33:fd:c1:2a:62:46:f8:60:96:cf:6e:01:6f:22:df:
                    13:47:e7:97:ec:05:72:23:a3:62:f8:fa:ef:ac:9c:
                    72:f0:37:cb:2f:37:cf:90:a8:27:51:86:c6:d7:78:
                    08:8f:7e:25:a2:15:70:a2:fb:1c:b6:15:5e:a0:97:
                    8b:81:4c:09:28:8a:27:3b:94:bc:71:db:5b:71:37:
                    9a:2b:16:e0:6f:b5:c9:f5:4b:4f:20:ba:65:cf:af:
                    ad:ad
                Exponent: 65537 (0x10001)
        X509v3 extensions:
            X509v3 Key Usage: 
                Digital Signature, Key Encipherment
            X509v3 Basic Constraints: 
                CA:FALSE
            Netscape Cert Type: 
                SSL Server
            Netscape Comment: 
                OpenSSL Generated Server Certificate
            X509v3 Subject Key Identifier: 
                E5:25:6D:3E:AF:0D:DD:3F:4C:F2:45:19:39:D5:14:DB:7E:9C:C0:AD
            X509v3 Authority Key Identifier: 
                keyid:F4:A7:C0:CC:91:46:AF:64:F3:91:F2:27:F8:C8:B2:6F:8A:87:32:73
                DirName:/C=DE/ST=Hessen/O=privacyidea/CN=CA001
                serial:FB:C8:EB:AC:83:CD:12:07

            X509v3 Extended Key Usage: 
                TLS Web Server Authentication
    Signature Algorithm: sha256WithRSAEncryption
         16:d3:df:df:48:97:95:a5:83:10:15:80:57:d6:1b:b3:7f:a1:
         49:bc:92:79:25:4e:17:07:43:82:fe:fd:95:f6:36:de:c7:8e:
         da:b3:49:89:94:dd:04:fe:90:bf:5a:c6:ba:f0:7a:6b:73:84:
         ef:00:3f:b9:9b:42:0e:d8:d9:1f:c3:a2:43:72:02:8d:3b:bf:
         3c:55:13:c3:42:1c:9c:0d:4d:90:76:6b:f9:ef:53:2c:07:45:
         22:fb:6a:b4:4a:2a:99:e6:70:ea:84:fb:82:0f:df:ef:b7:c9:
         8a:2a:6d:49:9e:f7:62:20:4c:6d:bc:5e:43:79:dd:f5:f2:40:
         be:4f:ba:51:a2:05:d8:a4:c9:50:a6:9a:63:a4:9e:27:7b:c3:
         aa:ff:0a:5c:b0:a3:ef:55:77:83:03:07:e3:6e:eb:27:0b:e1:
         15:4a:59:3b:7a:d1:6e:d1:b4:e1:4b:81:ea:f7:d4:8f:f4:82:
         d3:11:90:42:24:cd:43:f2:95:73:ff:25:e3:12:79:68:f2:3d:
         35:ac:9d:f7:94:95:aa:f2:eb:5f:c4:34:1a:7a:70:6b:55:9e:
         23:88:8f:6f:17:58:81:bb:e1:38:5f:d9:51:0a:7a:7d:37:01:
         b5:cb:fb:05:3f:92:a1:72:a8:25:44:4c:dc:c8:56:8e:56:71:
         46:60:26:e3
-----BEGIN CERTIFICATE-----
MIIECTCCAvGgAwIBAgIEEAAA0zANBgkqhkiG9w0BAQsFADBEMQswCQYDVQQGEwJE
RTEPMA0GA1UECAwGSGVzc2VuMRQwEgYDVQQKDAtwcml2YWN5aWRlYTEOMAwGA1UE
AwwFQ0EwMDEwHhcNMTgwNTI5MTAyNzQwWhcNMTkwNTI5MTAyNzQwWjA3MRMwEQYD
VQQDDApTdGV2ZSBUZXN0MSAwHgYJKoZIhvcNAQkBFhFzdGV2ZUBvcGVuc3NsLm9y
ZzCCASIwDQYJKoZIhvcNAQEBBQADggEPADCCAQoCggEBANKBiSBRSA9z9BEyJNUf
HP1c9bbmxfBSgdzSr2ZKfJMxYVyv0W0GcANgfHIMiN1JzZ4CbNJa11MP89q+aWS1
DwwA47NQR6Ozm7oTUNZYWkurOeARygonZwN4ImZtkh4bXEmu5mvRjjudBtPGrE1T
QxCr6JbBh4KXmY8g05kSNzGE4Yr/KQNfIpA+f5vgIMGt3K5MORoxlhcCjLLZtA0g
Ept9hlT9M/3BKmJG+GCWz24BbyLfE0fnl+wFciOjYvj676yccvA3yy83z5CoJ1GG
xtd4CI9+JaIVcKL7HLYVXqCXi4FMCSiKJzuUvHHbW3E3misW4G+1yfVLTyC6Zc+v
ra0CAwEAAaOCAQ4wggEKMAsGA1UdDwQEAwIFoDAJBgNVHRMEAjAAMBEGCWCGSAGG
+EIBAQQEAwIGQDAzBglghkgBhvhCAQ0EJhYkT3BlblNTTCBHZW5lcmF0ZWQgU2Vy
dmVyIENlcnRpZmljYXRlMB0GA1UdDgQWBBTlJW0+rw3dP0zyRRk51RTbfpzArTB0
BgNVHSMEbTBrgBT0p8DMkUavZPOR8if4yLJviocyc6FIpEYwRDELMAkGA1UEBhMC
REUxDzANBgNVBAgMBkhlc3NlbjEUMBIGA1UECgwLcHJpdmFjeWlkZWExDjAMBgNV
BAMMBUNBMDAxggkA+8jrrIPNEgcwEwYDVR0lBAwwCgYIKwYBBQUHAwEwDQYJKoZI
hvcNAQELBQADggEBABbT399Il5WlgxAVgFfWG7N/oUm8knklThcHQ4L+/ZX2Nt7H
jtqzSYmU3QT+kL9axrrwemtzhO8AP7mbQg7Y2R/DokNyAo07vzxVE8NCHJwNTZB2
a/nvUywHRSL7arRKKpnmcOqE+4IP3++3yYoqbUme92IgTG28XkN53fXyQL5PulGi
BdikyVCmmmOknid7w6r/Clywo+9Vd4MDB+Nu6ycL4RVKWTt60W7RtOFLger31I/0
gtMRkEIkzUPylXP/JeMSeWjyPTWsnfeUlary61/ENBp6cGtVniOIj28XWIG74Thf
2VEKen03AbXL+wU/kqFyqCVETNzIVo5WcUZgJuM=
-----END CERTIFICATE-----
