Certificate:
    Data:
        Version: 3 (0x2)
        Serial Number: 268435664 (0x100000d0)
    Signature Algorithm: sha256WithRSAEncryption
        Issuer: C=DE, ST=Hessen, O=privacyidea, CN=CA001
        Validity
            Not Before: May 29 10:25:36 2018 GMT
            Not After : May 29 10:25:36 2019 GMT
        Subject: C=DE, ST=Hessen, O=privacyidea, CN=requester.localdomain
        Subject Public Key Info:
            Public Key Algorithm: rsaEncryption
                Public-Key: (2048 bit)
                Modulus:
                    00:cd:be:14:4f:fa:ce:01:3f:42:22:1b:1d:9c:af:
                    dd:92:d2:7f:db:6c:b7:3e:39:43:43:6b:13:03:f1:
                    05:f4:07:74:bc:76:69:28:0b:af:19:8e:d7:fc:e3:
                    cd:c6:58:f2:ca:7f:08:6d:53:fc:07:02:44:24:c6:
                    b4:34:4c:8c:04:fe:33:0e:40:e2:20:ba:02:73:5a:
                    f7:f5:4f:63:6e:cc:c6:b6:df:54:1d:37:39:7d:51:
                    36:26:5f:bd:dc:3f:a8:8b:6b:a2:ae:b6:9d:d6:21:
                    e7:df:41:b8:7a:28:2a:68:48:ca:a8:2d:ed:e1:e9:
                    46:5e:5a:72:6d:b4:84:38:87:91:fd:94:11:0b:28:
                    84:c6:c2:2f:2a:fb:01:f9:36:7a:09:75:d1:33:88:
                    3c:73:41:5b:c8:bf:94:89:70:a1:f0:c0:b9:2e:50:
                    53:1e:b1:17:64:69:f4:2d:81:e0:a9:0d:0e:32:e9:
                    ba:55:8a:85:f1:1b:6f:49:79:b4:7f:88:c3:0d:3e:
                    54:88:9b:3d:1f:38:8c:04:f3:ee:6a:63:2b:f5:c6:
                    db:b4:83:aa:c4:78:41:3a:7d:4b:e1:c8:3e:71:ca:
                    1b:61:59:ea:c6:c4:ca:32:5e:c9:e9:bf:12:29:e6:
                    c6:c3:63:fe:a0:55:da:7a:f1:60:98:4d:26:ed:fa:
                    70:2d
                Exponent: 65537 (0x10001)
        X509v3 extensions:
            X509v3 Key Usage: 
                Digital Signature, Key Encipherment
            X509v3 Basic Constraints: 
                CA:FALSE
            Netscape Cert Type: 
                SSL Server
            Netscape Comment: 
                OpenSSL Generated Server Certificate
            X509v3 Subject Key Identifier: 
                53:3F:ED:5D:09:07:B3:65:7B:AB:45:C9:24:5B:09:77:80:0A:96:ED
            X509v3 Authority Key Identifier: 
                keyid:F4:A7:C0:CC:91:46:AF:64:F3:91:F2:27:F8:C8:B2:6F:8A:87:32:73
                DirName:/C=DE/ST=Hessen/O=privacyidea/CN=CA001
                serial:FB:C8:EB:AC:83:CD:12:07

            X509v3 Extended Key Usage: 
                TLS Web Server Authentication
    Signature Algorithm: sha256WithRSAEncryption
         8c:8e:51:08:04:95:95:e9:34:68:07:5d:2b:ba:19:44:65:a6:
         0a:81:5e:ca:29:6a:9e:30:93:6d:9d:48:0c:f8:99:10:be:80:
         37:42:b2:be:7c:66:57:ac:08:44:99:d0:d1:89:3d:01:67:54:
         b0:e7:db:83:2c:f3:0e:37:c4:d0:46:01:0f:fd:8b:2d:6f:8f:
         38:0f:de:c8:60:fa:a2:bd:e5:97:aa:22:39:0e:96:32:a7:91:
         6a:a5:27:a3:1b:51:c8:ce:80:77:9b:6e:35:9e:ea:f4:81:ee:
         89:c6:81:f4:37:d9:a5:81:e5:c0:5b:82:99:42:6b:7e:08:8b:
         ea:d5:f7:f2:30:bc:a3:7b:6f:9f:75:67:df:49:3d:5d:f1:16:
         7c:42:05:b5:6a:e0:13:46:5d:40:ce:3a:ce:39:37:3a:52:89:
         c3:43:09:29:47:bc:6a:4f:99:00:77:d5:8a:b2:68:2d:8a:e1:
         a3:23:c4:7f:d8:1f:7b:b9:57:7d:eb:c1:a2:d8:38:01:8b:db:
         c0:e0:ed:bb:f1:50:cc:de:d8:62:1b:91:81:65:e1:51:a9:60:
         a1:9e:a3:56:69:39:1c:94:66:79:c8:a8:39:e1:85:8b:36:90:
         53:72:d1:24:fa:f5:d0:50:e5:61:26:0c:5d:40:cb:d2:71:76:
         c4:22:c6:f9
-----BEGIN CERTIFICATE-----
MIIEJjCCAw6gAwIBAgIEEAAA0DANBgkqhkiG9w0BAQsFADBEMQswCQYDVQQGEwJE
RTEPMA0GA1UECAwGSGVzc2VuMRQwEgYDVQQKDAtwcml2YWN5aWRlYTEOMAwGA1UE
AwwFQ0EwMDEwHhcNMTgwNTI5MTAyNTM2WhcNMTkwNTI5MTAyNTM2WjBUMQswCQYD
VQQGEwJERTEPMA0GA1UECAwGSGVzc2VuMRQwEgYDVQQKDAtwcml2YWN5aWRlYTEe
MBwGA1UEAwwVcmVxdWVzdGVyLmxvY2FsZG9tYWluMIIBIjANBgkqhkiG9w0BAQEF
AAOCAQ8AMIIBCgKCAQEAzb4UT/rOAT9CIhsdnK/dktJ/22y3PjlDQ2sTA/EF9Ad0
vHZpKAuvGY7X/OPNxljyyn8IbVP8BwJEJMa0NEyMBP4zDkDiILoCc1r39U9jbszG
tt9UHTc5fVE2Jl+93D+oi2uirrad1iHn30G4eigqaEjKqC3t4elGXlpybbSEOIeR
/ZQRCyiExsIvKvsB+TZ6CXXRM4g8c0FbyL+UiXCh8MC5LlBTHrEXZGn0LYHgqQ0O
Mum6VYqF8RtvSXm0f4jDDT5UiJs9HziMBPPuamMr9cbbtIOqxHhBOn1L4cg+ccob
YVnqxsTKMl7J6b8SKebGw2P+oFXaevFgmE0m7fpwLQIDAQABo4IBDjCCAQowCwYD
VR0PBAQDAgWgMAkGA1UdEwQCMAAwEQYJYIZIAYb4QgEBBAQDAgZAMDMGCWCGSAGG
+EIBDQQmFiRPcGVuU1NMIEdlbmVyYXRlZCBTZXJ2ZXIgQ2VydGlmaWNhdGUwHQYD
VR0OBBYEFFM/7V0JB7Nle6tFySRbCXeACpbtMHQGA1UdIwRtMGuAFPSnwMyRRq9k
85HyJ/jIsm+KhzJzoUikRjBEMQswCQYDVQQGEwJERTEPMA0GA1UECAwGSGVzc2Vu
MRQwEgYDVQQKDAtwcml2YWN5aWRlYTEOMAwGA1UEAwwFQ0EwMDGCCQD7yOusg80S
BzATBgNVHSUEDDAKBggrBgEFBQcDATANBgkqhkiG9w0BAQsFAAOCAQEAjI5RCASV
lek0aAddK7oZRGWmCoFeyilqnjCTbZ1IDPiZEL6AN0KyvnxmV6wIRJnQ0Yk9AWdU
sOfbgyzzDjfE0EYBD/2LLW+POA/eyGD6or3ll6oiOQ6WMqeRaqUnoxtRyM6Ad5tu
NZ7q9IHuicaB9DfZpYHlwFuCmUJrfgiL6tX38jC8o3tvn3Vn30k9XfEWfEIFtWrg
E0ZdQM46zjk3OlKJw0MJKUe8ak+ZAHfVirJoLYrhoyPEf9gfe7lXfevBotg4AYvb
wODtu/FQzN7YYhuRgWXhUalgoZ6jVmk5HJRmecioOeGFizaQU3LRJPr10FDlYSYM
XUDL0nF2xCLG+Q==
-----END CERTIFICATE-----
