Certificate:
    Data:
        Version: 3 (0x2)
        Serial Number: 268435676 (0x100000dc)
    Signature Algorithm: sha256WithRSAEncryption
        Issuer: C=DE, ST=Hessen, O=privacyidea, CN=CA001
        Validity
            Not Before: May 29 10:51:29 2018 GMT
            Not After : May 29 10:51:29 2019 GMT
        Subject: C=DE, ST=Hessen, O=privacyidea, CN=requester.localdomain
        Subject Public Key Info:
            Public Key Algorithm: rsaEncryption
                Public-Key: (2048 bit)
                Modulus:
                    00:cd:be:14:4f:fa:ce:01:3f:42:22:1b:1d:9c:af:
                    dd:92:d2:7f:db:6c:b7:3e:39:43:43:6b:13:03:f1:
                    05:f4:07:74:bc:76:69:28:0b:af:19:8e:d7:fc:e3:
                    cd:c6:58:f2:ca:7f:08:6d:53:fc:07:02:44:24:c6:
                    b4:34:4c:8c:04:fe:33:0e:40:e2:20:ba:02:73:5a:
                    f7:f5:4f:63:6e:cc:c6:b6:df:54:1d:37:39:7d:51:
                    36:26:5f:bd:dc:3f:a8:8b:6b:a2:ae:b6:9d:d6:21:
                    e7:df:41:b8:7a:28:2a:68:48:ca:a8:2d:ed:e1:e9:
                    46:5e:5a:72:6d:b4:84:38:87:91:fd:94:11:0b:28:
                    84:c6:c2:2f:2a:fb:01:f9:36:7a:09:75:d1:33:88:
                    3c:73:41:5b:c8:bf:94:89:70:a1:f0:c0:b9:2e:50:
                    53:1e:b1:17:64:69:f4:2d:81:e0:a9:0d:0e:32:e9:
                    ba:55:8a:85:f1:1b:6f:49:79:b4:7f:88:c3:0d:3e:
                    54:88:9b:3d:1f:38:8c:04:f3:ee:6a:63:2b:f5:c6:
                    db:b4:83:aa:c4:78:41:3a:7d:4b:e1:c8:3e:71:ca:
                    1b:61:59:ea:c6:c4:ca:32:5e:c9:e9:bf:12:29:e6:
                    c6:c3:63:fe:a0:55:da:7a:f1:60:98:4d:26:ed:fa:
                    70:2d
                Exponent: 65537 (0x10001)
        X509v3 extensions:
            X509v3 Key Usage: 
                Digital Signature, Key Encipherment
            X509v3 Basic Constraints: 
                CA:FALSE
            Netscape Cert Type: 
                SSL Server
            Netscape Comment: 
                OpenSSL Generated Server Certificate
            X509v3 Subject Key Identifier: 
                53:3F:ED:5D:09:07:B3:65:7B:AB:45:C9:24:5B:09:77:80:0A:96:ED
            X509v3 Authority Key Identifier: 
                keyid:F4:A7:C0:CC:91:46:AF:64:F3:91:F2:27:F8:C8:B2:6F:8A:87:32:73
                DirName:/C=DE/ST=Hessen/O=privacyidea/CN=CA001
                serial:FB:C8:EB:AC:83:CD:12:07

            X509v3 Extended Key Usage: 
                TLS Web Server Authentication
    Signature Algorithm: sha256WithRSAEncryption
         4c:6b:48:57:1c:55:1a:04:7a:5f:7e:66:65:a6:a7:92:68:63:
         5b:82:23:90:43:f3:95:3e:8c:cb:38:76:22:db:61:3f:42:5f:
         98:42:20:67:8f:e6:b6:eb:76:d9:44:9b:b7:a0:67:4c:74:42:
         04:c4:d1:9a:36:fd:9b:b7:63:f8:0a:d2:c4:ed:c1:63:a7:4f:
         55:28:93:ea:4c:81:69:95:8a:70:2d:e7:80:e2:be:98:cd:4d:
         77:38:04:5d:f6:e1:da:a0:d1:4f:ea:f0:34:e1:f7:77:1a:05:
         e9:b6:ec:63:4b:d0:bb:d8:b7:7d:b0:a2:e3:93:aa:c8:38:05:
         09:f4:01:3e:b0:0a:c8:e1:d0:17:3d:25:f1:00:37:51:c7:66:
         72:e6:69:ee:37:1a:a3:46:ca:6f:70:26:34:53:4d:d5:f8:6b:
         82:16:08:c3:7d:ef:4a:b5:e1:10:55:2e:3c:18:40:6b:21:b6:
         5e:65:9b:57:72:99:26:e9:75:66:fd:6c:ca:06:92:ab:cc:f4:
         a8:3c:07:f0:95:79:d1:ae:a6:0e:8e:c0:26:1f:db:a0:5f:5b:
         72:0e:b9:02:de:ca:ec:b6:68:88:f5:dc:1b:74:b2:ac:e7:a1:
         64:cd:ad:4b:75:4a:58:92:b1:7d:50:21:24:82:78:6a:59:f6:
         89:2d:09:a2
-----BEGIN CERTIFICATE-----
MIIEJjCCAw6gAwIBAgIEEAAA3DANBgkqhkiG9w0BAQsFADBEMQswCQYDVQQGEwJE
RTEPMA0GA1UECAwGSGVzc2VuMRQwEgYDVQQKDAtwcml2YWN5aWRlYTEOMAwGA1UE
AwwFQ0EwMDEwHhcNMTgwNTI5MTA1MTI5WhcNMTkwNTI5MTA1MTI5WjBUMQswCQYD
VQQGEwJERTEPMA0GA1UECAwGSGVzc2VuMRQwEgYDVQQKDAtwcml2YWN5aWRlYTEe
MBwGA1UEAwwVcmVxdWVzdGVyLmxvY2FsZG9tYWluMIIBIjANBgkqhkiG9w0BAQEF
AAOCAQ8AMIIBCgKCAQEAzb4UT/rOAT9CIhsdnK/dktJ/22y3PjlDQ2sTA/EF9Ad0
vHZpKAuvGY7X/OPNxljyyn8IbVP8BwJEJMa0NEyMBP4zDkDiILoCc1r39U9jbszG
tt9UHTc5fVE2Jl+93D+oi2uirrad1iHn30G4eigqaEjKqC3t4elGXlpybbSEOIeR
/ZQRCyiExsIvKvsB+TZ6CXXRM4g8c0FbyL+UiXCh8MC5LlBTHrEXZGn0LYHgqQ0O
Mum6VYqF8RtvSXm0f4jDDT5UiJs9HziMBPPuamMr9cbbtIOqxHhBOn1L4cg+ccob
YVnqxsTKMl7J6b8SKebGw2P+oFXaevFgmE0m7fpwLQIDAQABo4IBDjCCAQowCwYD
VR0PBAQDAgWgMAkGA1UdEwQCMAAwEQYJYIZIAYb4QgEBBAQDAgZAMDMGCWCGSAGG
+EIBDQQmFiRPcGVuU1NMIEdlbmVyYXRlZCBTZXJ2ZXIgQ2VydGlmaWNhdGUwHQYD
VR0OBBYEFFM/7V0JB7Nle6tFySRbCXeACpbtMHQGA1UdIwRtMGuAFPSnwMyRRq9k
85HyJ/jIsm+KhzJzoUikRjBEMQswCQYDVQQGEwJERTEPMA0GA1UECAwGSGVzc2Vu
MRQwEgYDVQQKDAtwcml2YWN5aWRlYTEOMAwGA1UEAwwFQ0EwMDGCCQD7yOusg80S
BzATBgNVHSUEDDAKBggrBgEFBQcDATANBgkqhkiG9w0BAQsFAAOCAQEATGtIVxxV
GgR6X35mZaankmhjW4IjkEPzlT6Myzh2ItthP0JfmEIgZ4/mtut22USbt6BnTHRC
BMTRmjb9m7dj+ArSxO3BY6dPVSiT6kyBaZWKcC3ngOK+mM1NdzgEXfbh2qDRT+rw
NOH3dxoF6bbsY0vQu9i3fbCi45OqyDgFCfQBPrAKyOHQFz0l8QA3UcdmcuZp7jca
o0bKb3AmNFNN1fhrghYIw33vSrXhEFUuPBhAayG2XmWbV3KZJul1Zv1sygaSq8z0
qDwH8JV50a6mDo7AJh/boF9bcg65At7K7LZoiPXcG3SyrOehZM2tS3VKWJKxfVAh
JIJ4aln2iS0Jog==
-----END CERTIFICATE-----
