Certificate:
    Data:
        Version: 3 (0x2)
        Serial Number: 268435687 (0x100000e7)
    Signature Algorithm: sha256WithRSAEncryption
        Issuer: C=DE, ST=Hessen, O=privacyidea, CN=CA001
        Validity
            Not Before: Sep  7 14:07:16 2017 GMT
            Not After : Sep  7 14:07:16 2018 GMT
        Subject: C=DE, ST=Hessen, O=privacyidea, CN=requester.localdomain
        Subject Public Key Info:
            Public Key Algorithm: rsaEncryption
                Public-Key: (2048 bit)
                Modulus:
                    00:cd:be:14:4f:fa:ce:01:3f:42:22:1b:1d:9c:af:
                    dd:92:d2:7f:db:6c:b7:3e:39:43:43:6b:13:03:f1:
                    05:f4:07:74:bc:76:69:28:0b:af:19:8e:d7:fc:e3:
                    cd:c6:58:f2:ca:7f:08:6d:53:fc:07:02:44:24:c6:
                    b4:34:4c:8c:04:fe:33:0e:40:e2:20:ba:02:73:5a:
                    f7:f5:4f:63:6e:cc:c6:b6:df:54:1d:37:39:7d:51:
                    36:26:5f:bd:dc:3f:a8:8b:6b:a2:ae:b6:9d:d6:21:
                    e7:df:41:b8:7a:28:2a:68:48:ca:a8:2d:ed:e1:e9:
                    46:5e:5a:72:6d:b4:84:38:87:91:fd:94:11:0b:28:
                    84:c6:c2:2f:2a:fb:01:f9:36:7a:09:75:d1:33:88:
                    3c:73:41:5b:c8:bf:94:89:70:a1:f0:c0:b9:2e:50:
                    53:1e:b1:17:64:69:f4:2d:81:e0:a9:0d:0e:32:e9:
                    ba:55:8a:85:f1:1b:6f:49:79:b4:7f:88:c3:0d:3e:
                    54:88:9b:3d:1f:38:8c:04:f3:ee:6a:63:2b:f5:c6:
                    db:b4:83:aa:c4:78:41:3a:7d:4b:e1:c8:3e:71:ca:
                    1b:61:59:ea:c6:c4:ca:32:5e:c9:e9:bf:12:29:e6:
                    c6:c3:63:fe:a0:55:da:7a:f1:60:98:4d:26:ed:fa:
                    70:2d
                Exponent: 65537 (0x10001)
        X509v3 extensions:
            X509v3 Key Usage: 
                Digital Signature, Key Encipherment
            X509v3 Basic Constraints: 
                CA:FALSE
            Netscape Cert Type: 
                SSL Server
            Netscape Comment: 
                OpenSSL Generated Server Certificate
            X509v3 Subject Key Identifier: 
                53:3F:ED:5D:09:07:B3:65:7B:AB:45:C9:24:5B:09:77:80:0A:96:ED
            X509v3 Authority Key Identifier: 
                keyid:F4:A7:C0:CC:91:46:AF:64:F3:91:F2:27:F8:C8:B2:6F:8A:87:32:73
                DirName:/C=DE/ST=Hessen/O=privacyidea/CN=CA001
                serial:FB:C8:EB:AC:83:CD:12:07

            X509v3 Extended Key Usage: 
                TLS Web Server Authentication
    Signature Algorithm: sha256WithRSAEncryption
         19:cb:5b:eb:42:d4:c7:02:fb:3d:f3:69:ef:d3:6f:bc:d4:35:
         bc:f1:1c:1a:5b:38:f6:83:15:a0:4e:4b:ef:10:07:e2:50:b3:
         3c:d5:a3:1a:5f:97:ee:1c:41:b5:8b:fd:41:fa:54:90:e2:4c:
         a8:7e:49:5b:26:4b:da:5a:18:57:8d:ad:99:2c:02:ee:04:5c:
         68:2c:0a:24:12:bb:b2:8e:3c:7f:5f:2e:6d:ed:39:56:51:97:
         ae:72:a7:73:ba:8c:6b:a4:17:67:e0:f7:de:bd:fb:f9:b6:2e:
         bc:ca:33:1e:5d:b5:01:e2:32:fd:e1:10:dd:50:c2:31:f4:3d:
         52:27:4d:fe:a2:c8:ed:b2:bd:a5:0d:93:74:c3:4a:10:e4:15:
         27:bd:63:5e:a1:f3:68:e5:a7:cf:ab:a9:17:67:50:d2:55:25:
         81:e9:94:e8:9a:3e:f0:3b:5e:5d:30:e5:f2:24:0a:82:5c:df:
         7c:89:4e:7d:db:10:0e:78:ab:8f:18:4c:02:80:9e:58:e0:e5:
         a5:11:c4:31:35:ec:94:1d:2b:f3:07:90:09:d2:95:38:91:e0:
         31:88:ba:b8:ad:9f:20:f1:63:06:4e:c0:6c:12:e3:15:cc:ac:
         c3:a4:7e:f0:3f:27:0f:0c:3f:a4:95:52:8c:fe:c5:29:0d:63:
         b5:9b:fd:b8
-----BEGIN CERTIFICATE-----
MIIEJjCCAw6gAwIBAgIEEAAA5zANBgkqhkiG9w0BAQsFADBEMQswCQYDVQQGEwJE
RTEPMA0GA1UECAwGSGVzc2VuMRQwEgYDVQQKDAtwcml2YWN5aWRlYTEOMAwGA1UE
AwwFQ0EwMDEwHhcNMTcwOTA3MTQwNzE2WhcNMTgwOTA3MTQwNzE2WjBUMQswCQYD
VQQGEwJERTEPMA0GA1UECAwGSGVzc2VuMRQwEgYDVQQKDAtwcml2YWN5aWRlYTEe
MBwGA1UEAwwVcmVxdWVzdGVyLmxvY2FsZG9tYWluMIIBIjANBgkqhkiG9w0BAQEF
AAOCAQ8AMIIBCgKCAQEAzb4UT/rOAT9CIhsdnK/dktJ/22y3PjlDQ2sTA/EF9Ad0
vHZpKAuvGY7X/OPNxljyyn8IbVP8BwJEJMa0NEyMBP4zDkDiILoCc1r39U9jbszG
tt9UHTc5fVE2Jl+93D+oi2uirrad1iHn30G4eigqaEjKqC3t4elGXlpybbSEOIeR
/ZQRCyiExsIvKvsB+TZ6CXXRM4g8c0FbyL+UiXCh8MC5LlBTHrEXZGn0LYHgqQ0O
Mum6VYqF8RtvSXm0f4jDDT5UiJs9HziMBPPuamMr9cbbtIOqxHhBOn1L4cg+ccob
YVnqxsTKMl7J6b8SKebGw2P+oFXaevFgmE0m7fpwLQIDAQABo4IBDjCCAQowCwYD
VR0PBAQDAgWgMAkGA1UdEwQCMAAwEQYJYIZIAYb4QgEBBAQDAgZAMDMGCWCGSAGG
+EIBDQQmFiRPcGVuU1NMIEdlbmVyYXRlZCBTZXJ2ZXIgQ2VydGlmaWNhdGUwHQYD
VR0OBBYEFFM/7V0JB7Nle6tFySRbCXeACpbtMHQGA1UdIwRtMGuAFPSnwMyRRq9k
85HyJ/jIsm+KhzJzoUikRjBEMQswCQYDVQQGEwJERTEPMA0GA1UECAwGSGVzc2Vu
MRQwEgYDVQQKDAtwcml2YWN5aWRlYTEOMAwGA1UEAwwFQ0EwMDGCCQD7yOusg80S
BzATBgNVHSUEDDAKBggrBgEFBQcDATANBgkqhkiG9w0BAQsFAAOCAQEAGctb60LU
xwL7PfNp79NvvNQ1vPEcGls49oMVoE5L7xAH4lCzPNWjGl+X7hxBtYv9QfpUkOJM
qH5JWyZL2loYV42tmSwC7gRcaCwKJBK7so48f18ube05VlGXrnKnc7qMa6QXZ+D3
3r37+bYuvMozHl21AeIy/eEQ3VDCMfQ9UidN/qLI7bK9pQ2TdMNKEOQVJ71jXqHz
aOWnz6upF2dQ0lUlgemU6Jo+8DteXTDl8iQKglzffIlOfdsQDnirjxhMAoCeWODl
pRHEMTXslB0r8weQCdKVOJHgMYi6uK2fIPFjBk7AbBLjFcysw6R+8D8nDww/pJVS
jP7FKQ1jtZv9uA==
-----END CERTIFICATE-----
