Certificate:
    Data:
        Version: 3 (0x2)
        Serial Number: 268435668 (0x100000d4)
    Signature Algorithm: sha256WithRSAEncryption
        Issuer: C=DE, ST=Hessen, O=privacyidea, CN=CA001
        Validity
            Not Before: May 25 17:43:32 2018 GMT
            Not After : May 25 17:43:32 2019 GMT
        Subject: CN=Steve Test/emailAddress=steve@openssl.org
        Subject Public Key Info:
            Public Key Algorithm: rsaEncryption
                Public-Key: (2048 bit)
                Modulus:
                    00:d2:81:89:20:51:48:0f:73:f4:11:32:24:d5:1f:
                    1c:fd:5c:f5:b6:e6:c5:f0:52:81:dc:d2:af:66:4a:
                    7c:93:31:61:5c:af:d1:6d:06:70:03:60:7c:72:0c:
                    88:dd:49:cd:9e:02:6c:d2:5a:d7:53:0f:f3:da:be:
                    69:64:b5:0f:0c:00:e3:b3:50:47:a3:b3:9b:ba:13:
                    50:d6:58:5a:4b:ab:39:e0:11:ca:0a:27:67:03:78:
                    22:66:6d:92:1e:1b:5c:49:ae:e6:6b:d1:8e:3b:9d:
                    06:d3:c6:ac:4d:53:43:10:ab:e8:96:c1:87:82:97:
                    99:8f:20:d3:99:12:37:31:84:e1:8a:ff:29:03:5f:
                    22:90:3e:7f:9b:e0:20:c1:ad:dc:ae:4c:39:1a:31:
                    96:17:02:8c:b2:d9:b4:0d:20:12:9b:7d:86:54:fd:
                    33:fd:c1:2a:62:46:f8:60:96:cf:6e:01:6f:22:df:
                    13:47:e7:97:ec:05:72:23:a3:62:f8:fa:ef:ac:9c:
                    72:f0:37:cb:2f:37:cf:90:a8:27:51:86:c6:d7:78:
                    08:8f:7e:25:a2:15:70:a2:fb:1c:b6:15:5e:a0:97:
                    8b:81:4c:09:28:8a:27:3b:94:bc:71:db:5b:71:37:
                    9a:2b:16:e0:6f:b5:c9:f5:4b:4f:20:ba:65:cf:af:
                    ad:ad
                Exponent: 65537 (0x10001)
        X509v3 extensions:
            X509v3 Key Usage: 
                Digital Signature, Key Encipherment
            X509v3 Basic Constraints: 
                CA:FALSE
            Netscape Cert Type: 
                SSL Server
            Netscape Comment: 
                OpenSSL Generated Server Certificate
            X509v3 Subject Key Identifier: 
                E5:25:6D:3E:AF:0D:DD:3F:4C:F2:45:19:39:D5:14:DB:7E:9C:C0:AD
            X509v3 Authority Key Identifier: 
                keyid:F4:A7:C0:CC:91:46:AF:64:F3:91:F2:27:F8:C8:B2:6F:8A:87:32:73
                DirName:/C=DE/ST=Hessen/O=privacyidea/CN=CA001
                serial:FB:C8:EB:AC:83:CD:12:07

            X509v3 Extended Key Usage: 
                TLS Web Server Authentication
    Signature Algorithm: sha256WithRSAEncryption
         29:52:95:ea:54:9e:62:44:8d:89:f9:04:75:48:1b:eb:bd:08:
         9b:94:e2:21:2e:4b:a4:89:5f:c9:f1:78:0e:65:d7:36:43:31:
         e7:76:9b:0d:fe:4f:bb:1e:0f:8b:77:39:54:23:10:e5:dd:db:
         4a:60:29:86:14:a6:1d:c4:84:ff:48:c1:5b:dc:7c:61:a8:3e:
         50:46:e0:b2:6e:3d:64:50:49:74:54:30:1b:ac:2a:a3:1f:9d:
         26:9f:16:cd:1b:15:b7:56:f1:bf:b8:75:f1:ec:45:9d:5c:64:
         4b:d8:f8:bd:59:1b:8e:b5:24:2d:59:5c:a1:46:b8:2f:e8:59:
         b7:08:78:af:eb:0e:6d:ba:1a:85:6e:1f:f2:76:a7:33:48:46:
         df:a1:53:b3:f8:8c:9b:ae:83:d3:5b:91:84:cd:ef:91:47:c7:
         da:12:23:42:89:44:47:a9:6a:ce:1c:a2:3f:8b:88:d2:70:a7:
         08:3e:3d:bf:65:f5:89:b6:74:dd:39:25:0e:82:7b:60:fc:85:
         88:17:c6:a4:d2:e8:dd:8b:fc:e3:10:3a:2a:f5:70:fe:7f:3d:
         5d:34:49:13:cb:c8:52:a0:cb:38:74:77:33:9f:b2:d3:2d:e8:
         ea:b5:e3:c9:f2:dd:13:fa:60:5c:08:7b:8c:3d:fc:c5:6d:52:
         10:d3:2d:23
-----BEGIN CERTIFICATE-----
MIIECTCCAvGgAwIBAgIEEAAA1DANBgkqhkiG9w0BAQsFADBEMQswCQYDVQQGEwJE
RTEPMA0GA1UECAwGSGVzc2VuMRQwEgYDVQQKDAtwcml2YWN5aWRlYTEOMAwGA1UE
AwwFQ0EwMDEwHhcNMTgwNTI1MTc0MzMyWhcNMTkwNTI1MTc0MzMyWjA3MRMwEQYD
VQQDDApTdGV2ZSBUZXN0MSAwHgYJKoZIhvcNAQkBFhFzdGV2ZUBvcGVuc3NsLm9y
ZzCCASIwDQYJKoZIhvcNAQEBBQADggEPADCCAQoCggEBANKBiSBRSA9z9BEyJNUf
HP1c9bbmxfBSgdzSr2ZKfJMxYVyv0W0GcANgfHIMiN1JzZ4CbNJa11MP89q+aWS1
DwwA47NQR6Ozm7oTUNZYWkurOeARygonZwN4ImZtkh4bXEmu5mvRjjudBtPGrE1T
QxCr6JbBh4KXmY8g05kSNzGE4Yr/KQNfIpA+f5vgIMGt3K5MORoxlhcCjLLZtA0g
Ept9hlT9M/3BKmJG+GCWz24BbyLfE0fnl+wFciOjYvj676yccvA3yy83z5CoJ1GG
xtd4CI9+JaIVcKL7HLYVXqCXi4FMCSiKJzuUvHHbW3E3misW4G+1yfVLTyC6Zc+v
ra0CAwEAAaOCAQ4wggEKMAsGA1UdDwQEAwIFoDAJBgNVHRMEAjAAMBEGCWCGSAGG
+EIBAQQEAwIGQDAzBglghkgBhvhCAQ0EJhYkT3BlblNTTCBHZW5lcmF0ZWQgU2Vy
dmVyIENlcnRpZmljYXRlMB0GA1UdDgQWBBTlJW0+rw3dP0zyRRk51RTbfpzArTB0
BgNVHSMEbTBrgBT0p8DMkUavZPOR8if4yLJviocyc6FIpEYwRDELMAkGA1UEBhMC
REUxDzANBgNVBAgMBkhlc3NlbjEUMBIGA1UECgwLcHJpdmFjeWlkZWExDjAMBgNV
BAMMBUNBMDAxggkA+8jrrIPNEgcwEwYDVR0lBAwwCgYIKwYBBQUHAwEwDQYJKoZI
hvcNAQELBQADggEBAClSlepUnmJEjYn5BHVIG+u9CJuU4iEuS6SJX8nxeA5l1zZD
Med2mw3+T7seD4t3OVQjEOXd20pgKYYUph3EhP9IwVvcfGGoPlBG4LJuPWRQSXRU
MBusKqMfnSafFs0bFbdW8b+4dfHsRZ1cZEvY+L1ZG461JC1ZXKFGuC/oWbcIeK/r
Dm26GoVuH/J2pzNIRt+hU7P4jJuug9NbkYTN75FHx9oSI0KJREepas4coj+LiNJw
pwg+Pb9l9Ym2dN05JQ6Ce2D8hYgXxqTS6N2L/OMQOir1cP5/PV00SRPLyFKgyzh0
dzOfstMt6Oq148ny3RP6YFwIe4w9/MVtUhDTLSM=
-----END CERTIFICATE-----
