Certificate:
    Data:
        Version: 3 (0x2)
        Serial Number: 268435678 (0x100000de)
    Signature Algorithm: sha256WithRSAEncryption
        Issuer: C=DE, ST=Hessen, O=privacyidea, CN=CA001
        Validity
            Not Before: May 17 10:24:59 2018 GMT
            Not After : May 17 10:24:59 2019 GMT
        Subject: OU=realm1, CN=cornelius/emailAddress=user@localhost.localdomain
        Subject Public Key Info:
            Public Key Algorithm: rsaEncryption
                Public-Key: (2048 bit)
                Modulus:
                    00:a2:81:b9:d3:41:a4:14:40:0d:37:c9:fe:e3:3b:
                    6d:44:e3:c4:a5:48:de:0c:61:4e:d1:57:fa:c2:0e:
                    5e:9d:40:3a:75:4b:69:1c:80:43:c0:b1:38:39:5b:
                    0a:90:94:b8:82:74:bf:73:13:45:28:a2:53:09:1c:
                    24:23:85:16:d5:ae:15:0d:8f:4a:da:2d:5b:58:07:
                    2d:18:d4:a1:c1:3c:0b:73:48:dd:d9:73:37:29:ce:
                    c1:64:58:ef:52:a3:fd:f5:76:94:79:4e:e5:ca:26:
                    23:24:79:31:65:0c:8f:2c:65:e6:00:2c:bc:b9:f0:
                    46:2d:fe:fa:ef:73:63:09:18:2d:1e:b8:af:8b:e6:
                    62:54:46:2d:db:ab:f8:d9:11:0a:fd:25:43:c4:bb:
                    ec:60:06:ca:a1:a9:85:31:32:d8:72:8c:ff:eb:da:
                    6a:67:0d:2c:ae:f5:09:68:6e:55:4a:24:db:8b:e6:
                    04:4b:92:92:2e:e7:0e:92:a6:0b:d9:8e:84:37:46:
                    7e:59:37:60:9e:9c:69:19:4a:0d:a3:ca:d4:af:84:
                    e1:3c:c6:f7:b4:9b:5b:52:4a:5b:a3:2f:03:55:ef:
                    73:a6:d8:79:26:f6:c7:30:87:27:54:f5:80:9c:d6:
                    4b:47:0d:24:b0:6a:ef:49:23:ca:d2:a2:84:ed:21:
                    e4:cb
                Exponent: 65537 (0x10001)
        X509v3 extensions:
            X509v3 Key Usage: 
                Digital Signature, Key Encipherment
            X509v3 Basic Constraints: 
                CA:FALSE
            Netscape Cert Type: 
                SSL Server
            Netscape Comment: 
                OpenSSL Generated Server Certificate
            X509v3 Subject Key Identifier: 
                EC:61:AB:42:67:F1:31:30:38:DF:8E:2C:DB:0B:BA:69:08:83:5F:4E
            X509v3 Authority Key Identifier: 
                keyid:F4:A7:C0:CC:91:46:AF:64:F3:91:F2:27:F8:C8:B2:6F:8A:87:32:73
                DirName:/C=DE/ST=Hessen/O=privacyidea/CN=CA001
                serial:FB:C8:EB:AC:83:CD:12:07

            X509v3 Extended Key Usage: 
                TLS Web Server Authentication
    Signature Algorithm: sha256WithRSAEncryption
         7b:3c:13:a9:71:93:64:6b:bb:cf:d6:b1:ff:41:77:b5:b5:ff:
         98:6a:ba:16:0c:de:75:db:6e:d2:72:e6:f4:7c:d6:88:61:99:
         5b:ed:d8:20:95:30:95:7f:4c:a6:0e:13:63:4b:6d:c4:94:41:
         86:a4:83:dc:c9:fe:df:28:b6:f7:7a:36:43:dc:7e:e2:b3:64:
         7b:30:f6:ee:fe:95:3d:6a:fa:f8:96:bd:4d:07:fd:32:56:c7:
         1f:ad:8b:f8:ac:34:4b:1b:5b:08:99:7a:dc:7b:8e:13:8e:37:
         04:5d:ea:07:df:58:97:fe:d4:41:0e:6c:5e:bc:77:a6:0a:9c:
         65:37:15:27:ba:75:42:82:d9:95:c5:22:0d:a0:54:86:f1:ee:
         c1:b8:3c:6f:e9:6c:cd:46:82:ba:a9:47:98:34:a9:78:da:e7:
         00:df:a0:b4:6b:a7:16:a3:fe:82:b4:0f:f5:4a:85:d5:20:40:
         34:dc:90:4e:a7:45:04:53:75:70:1f:c3:da:fb:f3:aa:fa:87:
         df:25:7a:90:2b:e2:c5:6c:c4:1a:0e:4b:43:69:7b:dc:74:78:
         14:4a:2f:02:81:5b:c9:90:8f:d6:17:e7:e2:af:61:20:e6:46:
         2e:21:bc:fa:84:cb:fe:dd:9b:f8:16:a1:f9:4a:5f:ac:4b:4c:
         bb:04:c2:cf
-----BEGIN CERTIFICATE-----
MIIEIjCCAwqgAwIBAgIEEAAA3jANBgkqhkiG9w0BAQsFADBEMQswCQYDVQQGEwJE
RTEPMA0GA1UECAwGSGVzc2VuMRQwEgYDVQQKDAtwcml2YWN5aWRlYTEOMAwGA1UE
AwwFQ0EwMDEwHhcNMTgwNTE3MTAyNDU5WhcNMTkwNTE3MTAyNDU5WjBQMQ8wDQYD
VQQLDAZyZWFsbTExEjAQBgNVBAMMCWNvcm5lbGl1czEpMCcGCSqGSIb3DQEJARYa
dXNlckBsb2NhbGhvc3QubG9jYWxkb21haW4wggEiMA0GCSqGSIb3DQEBAQUAA4IB
DwAwggEKAoIBAQCigbnTQaQUQA03yf7jO21E48SlSN4MYU7RV/rCDl6dQDp1S2kc
gEPAsTg5WwqQlLiCdL9zE0UoolMJHCQjhRbVrhUNj0raLVtYBy0Y1KHBPAtzSN3Z
czcpzsFkWO9So/31dpR5TuXKJiMkeTFlDI8sZeYALLy58EYt/vrvc2MJGC0euK+L
5mJURi3bq/jZEQr9JUPEu+xgBsqhqYUxMthyjP/r2mpnDSyu9QloblVKJNuL5gRL
kpIu5w6SpgvZjoQ3Rn5ZN2CenGkZSg2jytSvhOE8xve0m1tSSlujLwNV73Om2Hkm
9scwhydU9YCc1ktHDSSwau9JI8rSooTtIeTLAgMBAAGjggEOMIIBCjALBgNVHQ8E
BAMCBaAwCQYDVR0TBAIwADARBglghkgBhvhCAQEEBAMCBkAwMwYJYIZIAYb4QgEN
BCYWJE9wZW5TU0wgR2VuZXJhdGVkIFNlcnZlciBDZXJ0aWZpY2F0ZTAdBgNVHQ4E
FgQU7GGrQmfxMTA4344s2wu6aQiDX04wdAYDVR0jBG0wa4AU9KfAzJFGr2TzkfIn
+Miyb4qHMnOhSKRGMEQxCzAJBgNVBAYTAkRFMQ8wDQYDVQQIDAZIZXNzZW4xFDAS
BgNVBAoMC3ByaXZhY3lpZGVhMQ4wDAYDVQQDDAVDQTAwMYIJAPvI66yDzRIHMBMG
A1UdJQQMMAoGCCsGAQUFBwMBMA0GCSqGSIb3DQEBCwUAA4IBAQB7PBOpcZNka7vP
1rH/QXe1tf+YaroWDN51227Scub0fNaIYZlb7dgglTCVf0ymDhNjS23ElEGGpIPc
yf7fKLb3ejZD3H7is2R7MPbu/pU9avr4lr1NB/0yVscfrYv4rDRLG1sImXrce44T
jjcEXeoH31iX/tRBDmxevHemCpxlNxUnunVCgtmVxSINoFSG8e7BuDxv6WzNRoK6
qUeYNKl42ucA36C0a6cWo/6CtA/1SoXVIEA03JBOp0UEU3VwH8Pa+/Oq+offJXqQ
K+LFbMQaDktDaXvcdHgUSi8CgVvJkI/WF+fir2Eg5kYuIbz6hMv+3Zv4FqH5Sl+s
S0y7BMLP
-----END CERTIFICATE-----
