Certificate:
    Data:
        Version: 3 (0x2)
        Serial Number: 268435670 (0x100000d6)
    Signature Algorithm: sha256WithRSAEncryption
        Issuer: C=DE, ST=Hessen, O=privacyidea, CN=CA001
        Validity
            Not Before: May 25 17:47:33 2018 GMT
            Not After : May 25 17:47:33 2019 GMT
        Subject: C=DE, ST=Hessen, O=privacyidea, CN=requester.localdomain
        Subject Public Key Info:
            Public Key Algorithm: rsaEncryption
                Public-Key: (2048 bit)
                Modulus:
                    00:cd:be:14:4f:fa:ce:01:3f:42:22:1b:1d:9c:af:
                    dd:92:d2:7f:db:6c:b7:3e:39:43:43:6b:13:03:f1:
                    05:f4:07:74:bc:76:69:28:0b:af:19:8e:d7:fc:e3:
                    cd:c6:58:f2:ca:7f:08:6d:53:fc:07:02:44:24:c6:
                    b4:34:4c:8c:04:fe:33:0e:40:e2:20:ba:02:73:5a:
                    f7:f5:4f:63:6e:cc:c6:b6:df:54:1d:37:39:7d:51:
                    36:26:5f:bd:dc:3f:a8:8b:6b:a2:ae:b6:9d:d6:21:
                    e7:df:41:b8:7a:28:2a:68:48:ca:a8:2d:ed:e1:e9:
                    46:5e:5a:72:6d:b4:84:38:87:91:fd:94:11:0b:28:
                    84:c6:c2:2f:2a:fb:01:f9:36:7a:09:75:d1:33:88:
                    3c:73:41:5b:c8:bf:94:89:70:a1:f0:c0:b9:2e:50:
                    53:1e:b1:17:64:69:f4:2d:81:e0:a9:0d:0e:32:e9:
                    ba:55:8a:85:f1:1b:6f:49:79:b4:7f:88:c3:0d:3e:
                    54:88:9b:3d:1f:38:8c:04:f3:ee:6a:63:2b:f5:c6:
                    db:b4:83:aa:c4:78:41:3a:7d:4b:e1:c8:3e:71:ca:
                    1b:61:59:ea:c6:c4:ca:32:5e:c9:e9:bf:12:29:e6:
                    c6:c3:63:fe:a0:55:da:7a:f1:60:98:4d:26:ed:fa:
                    70:2d
                Exponent: 65537 (0x10001)
        X509v3 extensions:
            X509v3 Key Usage: 
                Digital Signature, Key Encipherment
            X509v3 Basic Constraints: 
                CA:FALSE
            Netscape Cert Type: 
                SSL Server
            Netscape Comment: 
                OpenSSL Generated Server Certificate
            X509v3 Subject Key Identifier: 
                53:3F:ED:5D:09:07:B3:65:7B:AB:45:C9:24:5B:09:77:80:0A:96:ED
            X509v3 Authority Key Identifier: 
                keyid:F4:A7:C0:CC:91:46:AF:64:F3:91:F2:27:F8:C8:B2:6F:8A:87:32:73
                DirName:/C=DE/ST=Hessen/O=privacyidea/CN=CA001
                serial:FB:C8:EB:AC:83:CD:12:07

            X509v3 Extended Key Usage: 
                TLS Web Server Authentication
    Signature Algorithm: sha256WithRSAEncryption
         90:be:3f:5e:5b:77:88:e3:73:b9:70:55:1a:f8:ae:06:b4:4f:
         35:d8:47:f4:63:e3:1e:9c:5a:bf:79:85:9d:92:c5:85:69:1e:
         6c:53:2a:a1:d4:4f:5c:71:2d:c1:67:50:3c:3b:50:98:0c:81:
         16:2e:99:18:66:eb:61:0c:26:0b:bb:22:ad:b3:55:eb:1e:b2:
         98:a9:fc:46:c8:c9:65:f7:cd:a1:12:e0:0c:a2:fe:db:34:54:
         65:da:e3:41:93:17:dd:2f:d6:f5:89:e2:1c:70:4e:45:5d:df:
         be:b7:c5:e1:4a:d4:a2:c8:60:95:24:35:bf:b7:d2:41:20:63:
         e5:16:44:fa:a6:36:86:f9:67:42:d1:04:fe:ac:9d:db:bd:4b:
         06:c6:bc:75:9b:83:bd:6c:5c:6a:66:69:e8:df:e4:e7:07:bd:
         55:07:21:80:41:50:70:74:df:49:1c:41:86:be:bc:df:0c:e8:
         e7:e6:38:32:b5:26:45:03:4e:5f:74:51:dd:3f:a8:30:69:e7:
         cc:84:d7:43:f0:7c:2c:99:c7:75:30:d5:66:68:42:c3:a2:73:
         cd:74:34:b8:18:a8:98:46:57:a5:29:46:87:26:bb:f0:d0:a6:
         01:28:ba:fe:a7:25:4b:34:44:64:1e:a3:93:e4:88:5e:4d:87:
         1d:ec:b9:cd
-----BEGIN CERTIFICATE-----
MIIEJjCCAw6gAwIBAgIEEAAA1jANBgkqhkiG9w0BAQsFADBEMQswCQYDVQQGEwJE
RTEPMA0GA1UECAwGSGVzc2VuMRQwEgYDVQQKDAtwcml2YWN5aWRlYTEOMAwGA1UE
AwwFQ0EwMDEwHhcNMTgwNTI1MTc0NzMzWhcNMTkwNTI1MTc0NzMzWjBUMQswCQYD
VQQGEwJERTEPMA0GA1UECAwGSGVzc2VuMRQwEgYDVQQKDAtwcml2YWN5aWRlYTEe
MBwGA1UEAwwVcmVxdWVzdGVyLmxvY2FsZG9tYWluMIIBIjANBgkqhkiG9w0BAQEF
AAOCAQ8AMIIBCgKCAQEAzb4UT/rOAT9CIhsdnK/dktJ/22y3PjlDQ2sTA/EF9Ad0
vHZpKAuvGY7X/OPNxljyyn8IbVP8BwJEJMa0NEyMBP4zDkDiILoCc1r39U9jbszG
tt9UHTc5fVE2Jl+93D+oi2uirrad1iHn30G4eigqaEjKqC3t4elGXlpybbSEOIeR
/ZQRCyiExsIvKvsB+TZ6CXXRM4g8c0FbyL+UiXCh8MC5LlBTHrEXZGn0LYHgqQ0O
Mum6VYqF8RtvSXm0f4jDDT5UiJs9HziMBPPuamMr9cbbtIOqxHhBOn1L4cg+ccob
YVnqxsTKMl7J6b8SKebGw2P+oFXaevFgmE0m7fpwLQIDAQABo4IBDjCCAQowCwYD
VR0PBAQDAgWgMAkGA1UdEwQCMAAwEQYJYIZIAYb4QgEBBAQDAgZAMDMGCWCGSAGG
+EIBDQQmFiRPcGVuU1NMIEdlbmVyYXRlZCBTZXJ2ZXIgQ2VydGlmaWNhdGUwHQYD
VR0OBBYEFFM/7V0JB7Nle6tFySRbCXeACpbtMHQGA1UdIwRtMGuAFPSnwMyRRq9k
85HyJ/jIsm+KhzJzoUikRjBEMQswCQYDVQQGEwJERTEPMA0GA1UECAwGSGVzc2Vu
MRQwEgYDVQQKDAtwcml2YWN5aWRlYTEOMAwGA1UEAwwFQ0EwMDGCCQD7yOusg80S
BzATBgNVHSUEDDAKBggrBgEFBQcDATANBgkqhkiG9w0BAQsFAAOCAQEAkL4/Xlt3
iONzuXBVGviuBrRPNdhH9GPjHpxav3mFnZLFhWkebFMqodRPXHEtwWdQPDtQmAyB
Fi6ZGGbrYQwmC7sirbNV6x6ymKn8RsjJZffNoRLgDKL+2zRUZdrjQZMX3S/W9Yni
HHBORV3fvrfF4UrUoshglSQ1v7fSQSBj5RZE+qY2hvlnQtEE/qyd271LBsa8dZuD
vWxcamZp6N/k5we9VQchgEFQcHTfSRxBhr683wzo5+Y4MrUmRQNOX3RR3T+oMGnn
zITXQ/B8LJnHdTDVZmhCw6JzzXQ0uBiomEZXpSlGhya78NCmASi6/qclSzREZB6j
k+SIXk2HHey5zQ==
-----END CERTIFICATE-----
