Certificate:
    Data:
        Version: 3 (0x2)
        Serial Number: 268435669 (0x100000d5)
    Signature Algorithm: sha256WithRSAEncryption
        Issuer: C=DE, ST=Hessen, O=privacyidea, CN=CA001
        Validity
            Not Before: May 25 17:43:32 2018 GMT
            Not After : Jun 13 17:43:32 2020 GMT
        Subject: CN=Steve Test/emailAddress=steve@openssl.org
        Subject Public Key Info:
            Public Key Algorithm: rsaEncryption
                Public-Key: (2048 bit)
                Modulus:
                    00:d2:81:89:20:51:48:0f:73:f4:11:32:24:d5:1f:
                    1c:fd:5c:f5:b6:e6:c5:f0:52:81:dc:d2:af:66:4a:
                    7c:93:31:61:5c:af:d1:6d:06:70:03:60:7c:72:0c:
                    88:dd:49:cd:9e:02:6c:d2:5a:d7:53:0f:f3:da:be:
                    69:64:b5:0f:0c:00:e3:b3:50:47:a3:b3:9b:ba:13:
                    50:d6:58:5a:4b:ab:39:e0:11:ca:0a:27:67:03:78:
                    22:66:6d:92:1e:1b:5c:49:ae:e6:6b:d1:8e:3b:9d:
                    06:d3:c6:ac:4d:53:43:10:ab:e8:96:c1:87:82:97:
                    99:8f:20:d3:99:12:37:31:84:e1:8a:ff:29:03:5f:
                    22:90:3e:7f:9b:e0:20:c1:ad:dc:ae:4c:39:1a:31:
                    96:17:02:8c:b2:d9:b4:0d:20:12:9b:7d:86:54:fd:
                    33:fd:c1:2a:62:46:f8:60:96:cf:6e:01:6f:22:df:
                    13:47:e7:97:ec:05:72:23:a3:62:f8:fa:ef:ac:9c:
                    72:f0:37:cb:2f:37:cf:90:a8:27:51:86:c6:d7:78:
                    08:8f:7e:25:a2:15:70:a2:fb:1c:b6:15:5e:a0:97:
                    8b:81:4c:09:28:8a:27:3b:94:bc:71:db:5b:71:37:
                    9a:2b:16:e0:6f:b5:c9:f5:4b:4f:20:ba:65:cf:af:
                    ad:ad
                Exponent: 65537 (0x10001)
        X509v3 extensions:
            X509v3 Key Usage: 
                Digital Signature, Key Encipherment
            X509v3 Basic Constraints: 
                CA:FALSE
            Netscape Cert Type: 
                SSL Server
            Netscape Comment: 
                OpenSSL Generated Server Certificate
            X509v3 Subject Key Identifier: 
                E5:25:6D:3E:AF:0D:DD:3F:4C:F2:45:19:39:D5:14:DB:7E:9C:C0:AD
            X509v3 Authority Key Identifier: 
                keyid:F4:A7:C0:CC:91:46:AF:64:F3:91:F2:27:F8:C8:B2:6F:8A:87:32:73
                DirName:/C=DE/ST=Hessen/O=privacyidea/CN=CA001
                serial:FB:C8:EB:AC:83:CD:12:07

            X509v3 Extended Key Usage: 
                TLS Web Server Authentication
    Signature Algorithm: sha256WithRSAEncryption
         0b:c3:79:9a:96:a5:2b:80:ea:06:e7:ed:b6:6c:7d:a0:37:e8:
         30:e2:3a:22:77:4e:18:c5:00:6d:f1:84:e2:ae:83:f1:83:f7:
         3f:b1:43:49:d8:a1:bf:55:5f:7d:10:f5:80:4c:46:c0:0b:3e:
         1f:31:80:c8:d8:6f:5c:6d:7d:bc:32:dd:41:05:cc:74:bf:2f:
         39:03:89:85:fd:70:82:31:94:0a:f5:17:13:df:46:9a:b0:ad:
         ec:9a:37:18:ff:12:e7:1c:24:b3:19:9f:cf:21:4c:a8:b7:04:
         22:a0:42:05:3c:bb:2e:f1:e2:2d:73:df:4e:8b:b9:1e:35:73:
         c4:71:44:f9:e2:bf:69:4f:57:0d:27:a6:79:69:4b:f8:58:e4:
         9f:71:e8:30:df:cc:ae:cf:8b:d2:21:8e:2f:e1:c3:c5:09:df:
         71:11:f2:47:c2:1b:00:89:40:aa:0d:0b:51:b3:e3:53:2e:49:
         72:6a:1c:e2:a3:d9:89:c0:b7:5b:85:1d:9c:cc:54:55:5d:cd:
         3c:ef:ec:21:4d:ef:eb:92:89:87:61:c8:38:4e:58:37:00:04:
         0b:e5:71:f7:13:75:82:12:38:25:79:48:46:5c:d9:6c:06:35:
         1a:f3:d7:dc:30:14:4c:85:dc:37:82:28:bb:4d:b7:87:3a:78:
         c7:e9:a0:be
-----BEGIN CERTIFICATE-----
MIIECTCCAvGgAwIBAgIEEAAA1TANBgkqhkiG9w0BAQsFADBEMQswCQYDVQQGEwJE
RTEPMA0GA1UECAwGSGVzc2VuMRQwEgYDVQQKDAtwcml2YWN5aWRlYTEOMAwGA1UE
AwwFQ0EwMDEwHhcNMTgwNTI1MTc0MzMyWhcNMjAwNjEzMTc0MzMyWjA3MRMwEQYD
VQQDDApTdGV2ZSBUZXN0MSAwHgYJKoZIhvcNAQkBFhFzdGV2ZUBvcGVuc3NsLm9y
ZzCCASIwDQYJKoZIhvcNAQEBBQADggEPADCCAQoCggEBANKBiSBRSA9z9BEyJNUf
HP1c9bbmxfBSgdzSr2ZKfJMxYVyv0W0GcANgfHIMiN1JzZ4CbNJa11MP89q+aWS1
DwwA47NQR6Ozm7oTUNZYWkurOeARygonZwN4ImZtkh4bXEmu5mvRjjudBtPGrE1T
QxCr6JbBh4KXmY8g05kSNzGE4Yr/KQNfIpA+f5vgIMGt3K5MORoxlhcCjLLZtA0g
Ept9hlT9M/3BKmJG+GCWz24BbyLfE0fnl+wFciOjYvj676yccvA3yy83z5CoJ1GG
xtd4CI9+JaIVcKL7HLYVXqCXi4FMCSiKJzuUvHHbW3E3misW4G+1yfVLTyC6Zc+v
ra0CAwEAAaOCAQ4wggEKMAsGA1UdDwQEAwIFoDAJBgNVHRMEAjAAMBEGCWCGSAGG
+EIBAQQEAwIGQDAzBglghkgBhvhCAQ0EJhYkT3BlblNTTCBHZW5lcmF0ZWQgU2Vy
dmVyIENlcnRpZmljYXRlMB0GA1UdDgQWBBTlJW0+rw3dP0zyRRk51RTbfpzArTB0
BgNVHSMEbTBrgBT0p8DMkUavZPOR8if4yLJviocyc6FIpEYwRDELMAkGA1UEBhMC
REUxDzANBgNVBAgMBkhlc3NlbjEUMBIGA1UECgwLcHJpdmFjeWlkZWExDjAMBgNV
BAMMBUNBMDAxggkA+8jrrIPNEgcwEwYDVR0lBAwwCgYIKwYBBQUHAwEwDQYJKoZI
hvcNAQELBQADggEBAAvDeZqWpSuA6gbn7bZsfaA36DDiOiJ3ThjFAG3xhOKug/GD
9z+xQ0nYob9VX30Q9YBMRsALPh8xgMjYb1xtfbwy3UEFzHS/LzkDiYX9cIIxlAr1
FxPfRpqwreyaNxj/EuccJLMZn88hTKi3BCKgQgU8uy7x4i1z306LuR41c8RxRPni
v2lPVw0npnlpS/hY5J9x6DDfzK7Pi9Ihji/hw8UJ33ER8kfCGwCJQKoNC1Gz41Mu
SXJqHOKj2YnAt1uFHZzMVFVdzTzv7CFN7+uSiYdhyDhOWDcABAvlcfcTdYISOCV5
SEZc2WwGNRrz19wwFEyF3DeCKLtNt4c6eMfpoL4=
-----END CERTIFICATE-----
