Certificate:
    Data:
        Version: 3 (0x2)
        Serial Number: 268435672 (0x100000d8)
    Signature Algorithm: sha256WithRSAEncryption
        Issuer: C=DE, ST=Hessen, O=privacyidea, CN=CA001
        Validity
            Not Before: May 25 17:56:01 2018 GMT
            Not After : May 25 17:56:01 2019 GMT
        Subject: CN=selfservice,CN=user,O=realm1/emailAddress=meine
        Subject Public Key Info:
            Public Key Algorithm: rsaEncryption
                Public-Key: (2048 bit)
                Modulus:
                    00:cf:3c:d4:33:0e:12:c4:e6:da:cd:b6:56:a1:1c:
                    26:bb:26:1c:8a:4a:73:a8:58:8a:b6:1e:b3:8b:99:
                    d2:1d:07:c2:92:89:79:c0:69:d8:c8:df:28:61:98:
                    1e:b3:fe:ae:2b:bd:78:a9:f7:6e:47:dc:a3:a0:16:
                    8c:85:02:c1:4e:92:fd:72:6e:f0:c8:03:29:9b:b8:
                    00:6e:c0:83:95:c8:34:20:36:9c:b3:e5:e4:e6:76:
                    73:a3:1a:ad:40:96:e0:53:54:00:ec:76:79:9a:c6:
                    0d:7e:b6:bd:29:ec:83:f3:cb:89:a4:cb:6c:00:ba:
                    0c:c5:78:0f:ff:69:b8:94:f4:04:70:43:3f:d8:9e:
                    d7:a7:fb:5d:ce:75:8e:da:e7:c4:07:b1:9d:de:6f:
                    88:4b:b6:4d:9a:cf:f9:bc:fa:9f:cd:32:6d:f6:3a:
                    0b:0d:23:42:78:ec:97:42:bf:0e:4d:60:56:e1:d3:
                    02:f2:19:cb:84:57:90:e5:70:a1:a2:83:35:86:e2:
                    da:86:9f:f9:8a:c4:79:b3:52:28:da:cb:bb:34:ca:
                    d3:da:91:4a:cf:8d:76:a2:b2:6b:9b:f9:96:fd:09:
                    2a:da:11:23:4d:f0:cb:d6:b2:b1:0e:12:6c:9a:19:
                    65:98:87:ca:e4:ee:24:ce:44:ac:90:8f:9d:1b:c5:
                    2a:9d
                Exponent: 65537 (0x10001)
        X509v3 extensions:
            X509v3 Key Usage: 
                Digital Signature, Key Encipherment
            X509v3 Basic Constraints: 
                CA:FALSE
            Netscape Cert Type: 
                SSL Server
            Netscape Comment: 
                OpenSSL Generated Server Certificate
            X509v3 Subject Key Identifier: 
                4D:07:90:AD:FF:1D:0D:E7:1A:DD:D6:2E:FA:BA:34:CB:AA:1F:24:C6
            X509v3 Authority Key Identifier: 
                keyid:F4:A7:C0:CC:91:46:AF:64:F3:91:F2:27:F8:C8:B2:6F:8A:87:32:73
                DirName:/C=DE/ST=Hessen/O=privacyidea/CN=CA001
                serial:FB:C8:EB:AC:83:CD:12:07

            X509v3 Extended Key Usage: 
                TLS Web Server Authentication
    Signature Algorithm: sha256WithRSAEncryption
         14:52:1a:a1:3c:7b:ea:20:40:8e:0b:ca:27:7a:bd:c7:6c:c8:
         74:9f:44:bd:96:60:7d:f7:bb:e4:9a:f6:09:c9:57:8e:06:9b:
         b1:7a:af:10:4f:08:93:ce:67:49:cd:d5:ea:11:07:7a:e6:05:
         27:03:b5:83:a6:67:38:40:43:c1:ba:db:de:52:36:8d:90:3d:
         9f:46:6d:63:dc:a9:79:d2:d6:b2:30:27:f0:cf:b1:34:49:ef:
         89:43:1c:4f:98:78:7a:2d:44:e0:ab:66:24:9e:7d:58:89:89:
         d6:47:e2:aa:56:72:2f:90:a8:5f:d0:6b:b2:77:01:ba:8d:78:
         78:85:be:83:e2:13:bc:0c:ab:68:f4:a7:b1:a0:74:78:0c:50:
         6e:08:d5:d1:ee:8b:5c:ba:e1:8b:7a:6c:d9:3f:b8:6b:3a:4d:
         6d:15:b7:56:a0:8b:59:2e:1b:81:04:8e:48:a2:f8:ce:ee:ab:
         42:d0:80:76:5e:de:a8:bf:d6:b5:15:1a:c8:47:d8:d6:9d:00:
         f4:1d:ee:1b:c9:38:b1:14:37:ea:e0:99:2c:63:7d:f1:1b:4c:
         2a:2b:3a:7b:f4:91:5b:14:63:03:b3:6c:83:be:a9:80:b9:f3:
         be:33:08:e4:80:08:b2:c3:69:9a:17:12:be:9e:3c:26:bb:5b:
         31:7a:e2:36
-----BEGIN CERTIFICATE-----
MIIEDzCCAvegAwIBAgIEEAAA2DANBgkqhkiG9w0BAQsFADBEMQswCQYDVQQGEwJE
RTEPMA0GA1UECAwGSGVzc2VuMRQwEgYDVQQKDAtwcml2YWN5aWRlYTEOMAwGA1UE
AwwFQ0EwMDEwHhcNMTgwNTI1MTc1NjAxWhcNMTkwNTI1MTc1NjAxWjA9MSUwIwYD
VQQDDBxzZWxmc2VydmljZSxDTj11c2VyLE89cmVhbG0xMRQwEgYJKoZIhvcNAQkB
FgVtZWluZTCCASIwDQYJKoZIhvcNAQEBBQADggEPADCCAQoCggEBAM881DMOEsTm
2s22VqEcJrsmHIpKc6hYirYes4uZ0h0HwpKJecBp2MjfKGGYHrP+riu9eKn3bkfc
o6AWjIUCwU6S/XJu8MgDKZu4AG7Ag5XINCA2nLPl5OZ2c6MarUCW4FNUAOx2eZrG
DX62vSnsg/PLiaTLbAC6DMV4D/9puJT0BHBDP9ie16f7Xc51jtrnxAexnd5viEu2
TZrP+bz6n80ybfY6Cw0jQnjsl0K/Dk1gVuHTAvIZy4RXkOVwoaKDNYbi2oaf+YrE
ebNSKNrLuzTK09qRSs+NdqKya5v5lv0JKtoRI03wy9aysQ4SbJoZZZiHyuTuJM5E
rJCPnRvFKp0CAwEAAaOCAQ4wggEKMAsGA1UdDwQEAwIFoDAJBgNVHRMEAjAAMBEG
CWCGSAGG+EIBAQQEAwIGQDAzBglghkgBhvhCAQ0EJhYkT3BlblNTTCBHZW5lcmF0
ZWQgU2VydmVyIENlcnRpZmljYXRlMB0GA1UdDgQWBBRNB5Ct/x0N5xrd1i76ujTL
qh8kxjB0BgNVHSMEbTBrgBT0p8DMkUavZPOR8if4yLJviocyc6FIpEYwRDELMAkG
A1UEBhMCREUxDzANBgNVBAgMBkhlc3NlbjEUMBIGA1UECgwLcHJpdmFjeWlkZWEx
DjAMBgNVBAMMBUNBMDAxggkA+8jrrIPNEgcwEwYDVR0lBAwwCgYIKwYBBQUHAwEw
DQYJKoZIhvcNAQELBQADggEBABRSGqE8e+ogQI4Lyid6vcdsyHSfRL2WYH33u+Sa
9gnJV44Gm7F6rxBPCJPOZ0nN1eoRB3rmBScDtYOmZzhAQ8G6295SNo2QPZ9GbWPc
qXnS1rIwJ/DPsTRJ74lDHE+YeHotROCrZiSefViJidZH4qpWci+QqF/Qa7J3AbqN
eHiFvoPiE7wMq2j0p7GgdHgMUG4I1dHui1y64Yt6bNk/uGs6TW0Vt1agi1kuG4EE
jkii+M7uq0LQgHZe3qi/1rUVGshH2NadAPQd7hvJOLEUN+rgmSxjffEbTCorOnv0
kVsUYwOzbIO+qYC5874zCOSACLLDaZoXEr6ePCa7WzF64jY=
-----END CERTIFICATE-----
