Certificate:
    Data:
        Version: 3 (0x2)
        Serial Number: 268435665 (0x100000d1)
    Signature Algorithm: sha256WithRSAEncryption
        Issuer: C=DE, ST=Hessen, O=privacyidea, CN=CA001
        Validity
            Not Before: May 25 17:41:16 2018 GMT
            Not After : May 25 17:41:16 2019 GMT
        Subject: C=DE, ST=Hessen, O=privacyidea, CN=requester.localdomain
        Subject Public Key Info:
            Public Key Algorithm: rsaEncryption
                Public-Key: (2048 bit)
                Modulus:
                    00:cd:be:14:4f:fa:ce:01:3f:42:22:1b:1d:9c:af:
                    dd:92:d2:7f:db:6c:b7:3e:39:43:43:6b:13:03:f1:
                    05:f4:07:74:bc:76:69:28:0b:af:19:8e:d7:fc:e3:
                    cd:c6:58:f2:ca:7f:08:6d:53:fc:07:02:44:24:c6:
                    b4:34:4c:8c:04:fe:33:0e:40:e2:20:ba:02:73:5a:
                    f7:f5:4f:63:6e:cc:c6:b6:df:54:1d:37:39:7d:51:
                    36:26:5f:bd:dc:3f:a8:8b:6b:a2:ae:b6:9d:d6:21:
                    e7:df:41:b8:7a:28:2a:68:48:ca:a8:2d:ed:e1:e9:
                    46:5e:5a:72:6d:b4:84:38:87:91:fd:94:11:0b:28:
                    84:c6:c2:2f:2a:fb:01:f9:36:7a:09:75:d1:33:88:
                    3c:73:41:5b:c8:bf:94:89:70:a1:f0:c0:b9:2e:50:
                    53:1e:b1:17:64:69:f4:2d:81:e0:a9:0d:0e:32:e9:
                    ba:55:8a:85:f1:1b:6f:49:79:b4:7f:88:c3:0d:3e:
                    54:88:9b:3d:1f:38:8c:04:f3:ee:6a:63:2b:f5:c6:
                    db:b4:83:aa:c4:78:41:3a:7d:4b:e1:c8:3e:71:ca:
                    1b:61:59:ea:c6:c4:ca:32:5e:c9:e9:bf:12:29:e6:
                    c6:c3:63:fe:a0:55:da:7a:f1:60:98:4d:26:ed:fa:
                    70:2d
                Exponent: 65537 (0x10001)
        X509v3 extensions:
            X509v3 Key Usage: 
                Digital Signature, Key Encipherment
            X509v3 Basic Constraints: 
                CA:FALSE
            Netscape Cert Type: 
                SSL Server
            Netscape Comment: 
                OpenSSL Generated Server Certificate
            X509v3 Subject Key Identifier: 
                53:3F:ED:5D:09:07:B3:65:7B:AB:45:C9:24:5B:09:77:80:0A:96:ED
            X509v3 Authority Key Identifier: 
                keyid:F4:A7:C0:CC:91:46:AF:64:F3:91:F2:27:F8:C8:B2:6F:8A:87:32:73
                DirName:/C=DE/ST=Hessen/O=privacyidea/CN=CA001
                serial:FB:C8:EB:AC:83:CD:12:07

            X509v3 Extended Key Usage: 
                TLS Web Server Authentication
    Signature Algorithm: sha256WithRSAEncryption
         5d:84:d3:9b:b9:d9:18:6b:06:70:9c:29:c1:00:38:e6:00:d6:
         51:69:ec:a7:f4:b9:ef:14:c2:4b:5c:e0:a8:11:11:6b:14:f4:
         b7:69:4e:d6:4e:bc:c1:5d:14:38:a1:93:b2:b7:f5:21:88:1e:
         57:92:b7:b2:4a:d1:a4:eb:c3:74:15:69:2c:8e:e7:a0:2b:d1:
         1f:bc:37:2b:30:70:c9:60:f2:9d:a3:3b:ea:c9:3b:99:0a:05:
         16:3c:65:87:18:f2:17:ca:2b:99:1d:53:0c:0d:44:a6:95:b8:
         d8:2b:32:31:20:29:34:c5:93:a1:1e:e1:00:45:5a:e3:ce:eb:
         e3:10:1e:b2:5b:6b:85:9f:10:a8:38:ab:75:9a:42:dc:b6:13:
         3c:c2:a7:b6:af:56:b8:7a:9e:56:7f:dd:c3:dc:95:2b:14:d0:
         a8:04:df:65:91:e9:83:66:20:f0:31:a5:be:07:00:9b:6d:c0:
         81:81:9e:63:43:b1:23:9e:b7:7d:ff:77:6d:6a:2d:51:91:e1:
         0c:a3:aa:ab:e5:c1:3f:56:63:c8:8f:ac:80:a3:4f:eb:d0:72:
         47:42:8d:39:0f:e0:ab:7b:98:94:1b:25:26:3e:21:b1:5d:1a:
         28:83:86:90:f6:d9:35:f6:7b:19:23:84:ef:9c:a8:bc:62:51:
         62:19:47:10
-----BEGIN CERTIFICATE-----
MIIEJjCCAw6gAwIBAgIEEAAA0TANBgkqhkiG9w0BAQsFADBEMQswCQYDVQQGEwJE
RTEPMA0GA1UECAwGSGVzc2VuMRQwEgYDVQQKDAtwcml2YWN5aWRlYTEOMAwGA1UE
AwwFQ0EwMDEwHhcNMTgwNTI1MTc0MTE2WhcNMTkwNTI1MTc0MTE2WjBUMQswCQYD
VQQGEwJERTEPMA0GA1UECAwGSGVzc2VuMRQwEgYDVQQKDAtwcml2YWN5aWRlYTEe
MBwGA1UEAwwVcmVxdWVzdGVyLmxvY2FsZG9tYWluMIIBIjANBgkqhkiG9w0BAQEF
AAOCAQ8AMIIBCgKCAQEAzb4UT/rOAT9CIhsdnK/dktJ/22y3PjlDQ2sTA/EF9Ad0
vHZpKAuvGY7X/OPNxljyyn8IbVP8BwJEJMa0NEyMBP4zDkDiILoCc1r39U9jbszG
tt9UHTc5fVE2Jl+93D+oi2uirrad1iHn30G4eigqaEjKqC3t4elGXlpybbSEOIeR
/ZQRCyiExsIvKvsB+TZ6CXXRM4g8c0FbyL+UiXCh8MC5LlBTHrEXZGn0LYHgqQ0O
Mum6VYqF8RtvSXm0f4jDDT5UiJs9HziMBPPuamMr9cbbtIOqxHhBOn1L4cg+ccob
YVnqxsTKMl7J6b8SKebGw2P+oFXaevFgmE0m7fpwLQIDAQABo4IBDjCCAQowCwYD
VR0PBAQDAgWgMAkGA1UdEwQCMAAwEQYJYIZIAYb4QgEBBAQDAgZAMDMGCWCGSAGG
+EIBDQQmFiRPcGVuU1NMIEdlbmVyYXRlZCBTZXJ2ZXIgQ2VydGlmaWNhdGUwHQYD
VR0OBBYEFFM/7V0JB7Nle6tFySRbCXeACpbtMHQGA1UdIwRtMGuAFPSnwMyRRq9k
85HyJ/jIsm+KhzJzoUikRjBEMQswCQYDVQQGEwJERTEPMA0GA1UECAwGSGVzc2Vu
MRQwEgYDVQQKDAtwcml2YWN5aWRlYTEOMAwGA1UEAwwFQ0EwMDGCCQD7yOusg80S
BzATBgNVHSUEDDAKBggrBgEFBQcDATANBgkqhkiG9w0BAQsFAAOCAQEAXYTTm7nZ
GGsGcJwpwQA45gDWUWnsp/S57xTCS1zgqBERaxT0t2lO1k68wV0UOKGTsrf1IYge
V5K3skrRpOvDdBVpLI7noCvRH7w3KzBwyWDynaM76sk7mQoFFjxlhxjyF8ormR1T
DA1EppW42CsyMSApNMWToR7hAEVa487r4xAesltrhZ8QqDirdZpC3LYTPMKntq9W
uHqeVn/dw9yVKxTQqATfZZHpg2Yg8DGlvgcAm23AgYGeY0OxI563ff93bWotUZHh
DKOqq+XBP1ZjyI+sgKNP69ByR0KNOQ/gq3uYlBslJj4hsV0aKIOGkPbZNfZ7GSOE
75yovGJRYhlHEA==
-----END CERTIFICATE-----
