Certificate:
    Data:
        Version: 3 (0x2)
        Serial Number: 268435674 (0x100000da)
    Signature Algorithm: sha256WithRSAEncryption
        Issuer: C=DE, ST=Hessen, O=privacyidea, CN=CA001
        Validity
            Not Before: May 17 10:21:08 2018 GMT
            Not After : May 17 10:21:08 2019 GMT
        Subject: C=DE, ST=Hessen, O=privacyidea, CN=usercert
        Subject Public Key Info:
            Public Key Algorithm: rsaEncryption
                Public-Key: (2048 bit)
                Modulus:
                    00:dc:2f:d1:5f:29:97:d4:7c:c3:53:c8:30:bd:4b:
                    67:70:2c:24:6b:b8:5e:eb:21:7a:48:12:56:7c:81:
                    5c:48:75:b6:68:eb:f6:f2:98:4e:50:51:d1:7f:6c:
                    73:f3:0a:a7:ae:be:48:5e:e5:d6:e1:d9:2a:7c:32:
                    6e:4e:fd:08:f6:5a:54:49:23:73:c3:b9:07:18:d1:
                    ef:b3:ac:f8:8a:dc:94:96:a4:90:3a:8e:74:df:e6:
                    0d:37:1b:bd:5b:b7:25:1a:56:39:da:6f:91:aa:5e:
                    1c:74:f3:f9:7c:14:01:83:12:65:76:c7:bb:fe:36:
                    5b:95:e9:72:65:83:ed:3e:98:30:71:fa:87:dd:a3:
                    36:5a:30:03:2e:26:e0:61:d1:bf:02:3f:b6:06:1f:
                    4a:89:28:1c:5c:a2:ff:4e:be:94:e6:8c:e0:da:82:
                    f1:9d:29:32:48:30:73:b4:04:f6:42:1e:be:f7:e2:
                    32:32:27:3c:9d:89:2f:70:3e:85:9a:6f:5c:c5:09:
                    c0:8c:32:2f:72:22:c9:d2:95:1f:b6:ac:72:60:72:
                    b7:82:4d:6b:ce:5b:e3:00:d0:d2:2f:58:c6:e0:10:
                    e5:51:ca:4d:3b:2e:e6:7e:ab:84:d6:56:f1:93:35:
                    a0:93:64:26:81:75:2f:91:b5:16:06:38:0b:db:cc:
                    2d:07
                Exponent: 65537 (0x10001)
        X509v3 extensions:
            X509v3 Key Usage: 
                Digital Signature, Key Encipherment
            X509v3 Basic Constraints: 
                CA:FALSE
            Netscape Cert Type: 
                SSL Server
            Netscape Comment: 
                OpenSSL Generated Server Certificate
            X509v3 Subject Key Identifier: 
                FC:14:D1:F0:4B:8D:00:90:F2:F5:B8:71:9E:4E:97:C3:92:54:AD:0B
            X509v3 Authority Key Identifier: 
                keyid:F4:A7:C0:CC:91:46:AF:64:F3:91:F2:27:F8:C8:B2:6F:8A:87:32:73
                DirName:/C=DE/ST=Hessen/O=privacyidea/CN=CA001
                serial:FB:C8:EB:AC:83:CD:12:07

            X509v3 Extended Key Usage: 
                TLS Web Server Authentication
    Signature Algorithm: sha256WithRSAEncryption
         23:1f:04:1a:21:b1:cc:99:e3:47:10:05:24:12:3e:82:01:07:
         ef:02:e1:e3:3e:f2:54:3c:47:99:ea:84:e2:8a:13:1e:1d:64:
         16:cd:28:2c:2b:ad:9d:0d:4e:c6:c5:44:42:da:d8:69:0e:12:
         15:e0:27:d7:3b:ba:f3:ca:ca:3f:59:94:32:6f:aa:9b:13:64:
         bb:19:88:e4:b3:3e:68:54:4d:b7:ba:f9:e8:a3:95:98:1d:19:
         5e:13:14:ae:4f:71:8d:de:9f:88:38:d9:2c:3a:27:aa:e2:dd:
         fa:f2:4c:38:39:79:b4:ae:ef:dc:20:bf:ba:2a:57:ab:cc:13:
         7d:07:29:3f:f2:cc:19:26:35:2e:d2:f6:ff:0a:ab:35:2c:b9:
         d8:2c:2c:a5:92:62:58:1f:55:54:bc:43:bd:dc:da:bc:7a:4b:
         18:7a:ca:8b:83:ec:8d:e6:d8:76:da:84:e4:85:29:ea:2f:2f:
         b2:ce:fa:0c:1d:9f:63:45:25:5c:eb:bd:c8:76:c6:f9:c1:0f:
         d6:53:c5:f2:e7:0e:e3:b1:3b:64:e5:b6:b7:92:24:38:da:3a:
         2b:dc:ef:95:97:c6:f8:96:ac:07:cf:0d:07:22:db:23:11:f8:
         b3:90:e1:fc:a9:26:cb:12:52:10:41:5c:82:f5:de:7b:cb:28:
         f6:85:0b:8e
-----BEGIN CERTIFICATE-----
MIIEGTCCAwGgAwIBAgIEEAAA2jANBgkqhkiG9w0BAQsFADBEMQswCQYDVQQGEwJE
RTEPMA0GA1UECAwGSGVzc2VuMRQwEgYDVQQKDAtwcml2YWN5aWRlYTEOMAwGA1UE
AwwFQ0EwMDEwHhcNMTgwNTE3MTAyMTA4WhcNMTkwNTE3MTAyMTA4WjBHMQswCQYD
VQQGEwJERTEPMA0GA1UECAwGSGVzc2VuMRQwEgYDVQQKDAtwcml2YWN5aWRlYTER
MA8GA1UEAwwIdXNlcmNlcnQwggEiMA0GCSqGSIb3DQEBAQUAA4IBDwAwggEKAoIB
AQDcL9FfKZfUfMNTyDC9S2dwLCRruF7rIXpIElZ8gVxIdbZo6/bymE5QUdF/bHPz
Cqeuvkhe5dbh2Sp8Mm5O/Qj2WlRJI3PDuQcY0e+zrPiK3JSWpJA6jnTf5g03G71b
tyUaVjnab5GqXhx08/l8FAGDEmV2x7v+NluV6XJlg+0+mDBx+ofdozZaMAMuJuBh
0b8CP7YGH0qJKBxcov9OvpTmjODagvGdKTJIMHO0BPZCHr734jIyJzydiS9wPoWa
b1zFCcCMMi9yIsnSlR+2rHJgcreCTWvOW+MA0NIvWMbgEOVRyk07LuZ+q4TWVvGT
NaCTZCaBdS+RtRYGOAvbzC0HAgMBAAGjggEOMIIBCjALBgNVHQ8EBAMCBaAwCQYD
VR0TBAIwADARBglghkgBhvhCAQEEBAMCBkAwMwYJYIZIAYb4QgENBCYWJE9wZW5T
U0wgR2VuZXJhdGVkIFNlcnZlciBDZXJ0aWZpY2F0ZTAdBgNVHQ4EFgQU/BTR8EuN
AJDy9bhxnk6Xw5JUrQswdAYDVR0jBG0wa4AU9KfAzJFGr2TzkfIn+Miyb4qHMnOh
SKRGMEQxCzAJBgNVBAYTAkRFMQ8wDQYDVQQIDAZIZXNzZW4xFDASBgNVBAoMC3By
aXZhY3lpZGVhMQ4wDAYDVQQDDAVDQTAwMYIJAPvI66yDzRIHMBMGA1UdJQQMMAoG
CCsGAQUFBwMBMA0GCSqGSIb3DQEBCwUAA4IBAQAjHwQaIbHMmeNHEAUkEj6CAQfv
AuHjPvJUPEeZ6oTiihMeHWQWzSgsK62dDU7GxURC2thpDhIV4CfXO7rzyso/WZQy
b6qbE2S7GYjksz5oVE23uvnoo5WYHRleExSuT3GN3p+IONksOieq4t368kw4OXm0
ru/cIL+6KlerzBN9Byk/8swZJjUu0vb/Cqs1LLnYLCylkmJYH1VUvEO93Nq8eksY
esqLg+yN5th22oTkhSnqLy+yzvoMHZ9jRSVc673Idsb5wQ/WU8Xy5w7jsTtk5ba3
kiQ42jor3O+Vl8b4lqwHzw0HItsjEfizkOH8qSbLElIQQVyC9d57yyj2hQuO
-----END CERTIFICATE-----
