Certificate:
    Data:
        Version: 3 (0x2)
        Serial Number: 268435681 (0x100000e1)
    Signature Algorithm: sha256WithRSAEncryption
        Issuer: C=DE, ST=Hessen, O=privacyidea, CN=CA001
        Validity
            Not Before: Jan 22 13:35:19 2018 GMT
            Not After : Feb 11 13:35:19 2020 GMT
        Subject: CN=Steve Test/emailAddress=steve@openssl.org
        Subject Public Key Info:
            Public Key Algorithm: rsaEncryption
                Public-Key: (2048 bit)
                Modulus:
                    00:d2:81:89:20:51:48:0f:73:f4:11:32:24:d5:1f:
                    1c:fd:5c:f5:b6:e6:c5:f0:52:81:dc:d2:af:66:4a:
                    7c:93:31:61:5c:af:d1:6d:06:70:03:60:7c:72:0c:
                    88:dd:49:cd:9e:02:6c:d2:5a:d7:53:0f:f3:da:be:
                    69:64:b5:0f:0c:00:e3:b3:50:47:a3:b3:9b:ba:13:
                    50:d6:58:5a:4b:ab:39:e0:11:ca:0a:27:67:03:78:
                    22:66:6d:92:1e:1b:5c:49:ae:e6:6b:d1:8e:3b:9d:
                    06:d3:c6:ac:4d:53:43:10:ab:e8:96:c1:87:82:97:
                    99:8f:20:d3:99:12:37:31:84:e1:8a:ff:29:03:5f:
                    22:90:3e:7f:9b:e0:20:c1:ad:dc:ae:4c:39:1a:31:
                    96:17:02:8c:b2:d9:b4:0d:20:12:9b:7d:86:54:fd:
                    33:fd:c1:2a:62:46:f8:60:96:cf:6e:01:6f:22:df:
                    13:47:e7:97:ec:05:72:23:a3:62:f8:fa:ef:ac:9c:
                    72:f0:37:cb:2f:37:cf:90:a8:27:51:86:c6:d7:78:
                    08:8f:7e:25:a2:15:70:a2:fb:1c:b6:15:5e:a0:97:
                    8b:81:4c:09:28:8a:27:3b:94:bc:71:db:5b:71:37:
                    9a:2b:16:e0:6f:b5:c9:f5:4b:4f:20:ba:65:cf:af:
                    ad:ad
                Exponent: 65537 (0x10001)
        X509v3 extensions:
            X509v3 Key Usage: 
                Digital Signature, Key Encipherment
            X509v3 Basic Constraints: 
                CA:FALSE
            Netscape Cert Type: 
                SSL Server
            Netscape Comment: 
                OpenSSL Generated Server Certificate
            X509v3 Subject Key Identifier: 
                E5:25:6D:3E:AF:0D:DD:3F:4C:F2:45:19:39:D5:14:DB:7E:9C:C0:AD
            X509v3 Authority Key Identifier: 
                keyid:F4:A7:C0:CC:91:46:AF:64:F3:91:F2:27:F8:C8:B2:6F:8A:87:32:73
                DirName:/C=DE/ST=Hessen/O=privacyidea/CN=CA001
                serial:FB:C8:EB:AC:83:CD:12:07

            X509v3 Extended Key Usage: 
                TLS Web Server Authentication
    Signature Algorithm: sha256WithRSAEncryption
         28:19:58:b5:10:37:45:5c:cd:63:02:c2:2c:22:ac:64:aa:4c:
         c0:b6:fb:75:64:8a:a5:da:f4:4d:af:20:b4:e6:36:b7:ca:a9:
         9c:48:f4:1b:2b:24:79:e0:4d:e5:d4:33:c0:eb:ec:36:2f:d4:
         0b:8b:49:24:e4:2c:da:3d:d0:c0:36:c2:44:7f:9d:81:a4:14:
         5a:22:39:90:67:66:49:10:bd:f0:5a:dd:77:40:59:dd:e3:00:
         b8:a1:d0:93:7d:ac:2f:53:ae:b4:12:86:66:10:37:81:06:c1:
         04:58:d8:3d:b6:e1:ae:49:5c:61:84:8c:62:66:0d:1b:46:8d:
         3b:1b:ff:fe:f9:7a:a1:20:b8:c1:29:75:c6:bd:3c:dd:6f:d2:
         48:61:88:ff:2b:43:87:d7:96:b4:1e:d1:b5:e4:cf:26:6d:32:
         eb:77:32:32:7a:c5:43:f1:fd:ec:68:b2:0e:95:d1:d8:57:0d:
         14:35:6e:d5:6e:e2:ee:3c:35:7e:70:ea:30:fd:25:7c:1e:44:
         20:27:ce:25:36:79:62:63:ca:e1:3c:3a:a7:79:02:b6:95:4b:
         8c:91:6e:10:2c:56:ec:3d:8f:c1:58:c5:2c:76:a4:f2:84:85:
         1e:0b:c1:1e:df:41:a6:87:9a:c4:10:1d:7f:ee:78:9d:eb:af:
         1f:dc:58:b7
-----BEGIN CERTIFICATE-----
MIIECTCCAvGgAwIBAgIEEAAA4TANBgkqhkiG9w0BAQsFADBEMQswCQYDVQQGEwJE
RTEPMA0GA1UECAwGSGVzc2VuMRQwEgYDVQQKDAtwcml2YWN5aWRlYTEOMAwGA1UE
AwwFQ0EwMDEwHhcNMTgwMTIyMTMzNTE5WhcNMjAwMjExMTMzNTE5WjA3MRMwEQYD
VQQDDApTdGV2ZSBUZXN0MSAwHgYJKoZIhvcNAQkBFhFzdGV2ZUBvcGVuc3NsLm9y
ZzCCASIwDQYJKoZIhvcNAQEBBQADggEPADCCAQoCggEBANKBiSBRSA9z9BEyJNUf
HP1c9bbmxfBSgdzSr2ZKfJMxYVyv0W0GcANgfHIMiN1JzZ4CbNJa11MP89q+aWS1
DwwA47NQR6Ozm7oTUNZYWkurOeARygonZwN4ImZtkh4bXEmu5mvRjjudBtPGrE1T
QxCr6JbBh4KXmY8g05kSNzGE4Yr/KQNfIpA+f5vgIMGt3K5MORoxlhcCjLLZtA0g
Ept9hlT9M/3BKmJG+GCWz24BbyLfE0fnl+wFciOjYvj676yccvA3yy83z5CoJ1GG
xtd4CI9+JaIVcKL7HLYVXqCXi4FMCSiKJzuUvHHbW3E3misW4G+1yfVLTyC6Zc+v
ra0CAwEAAaOCAQ4wggEKMAsGA1UdDwQEAwIFoDAJBgNVHRMEAjAAMBEGCWCGSAGG
+EIBAQQEAwIGQDAzBglghkgBhvhCAQ0EJhYkT3BlblNTTCBHZW5lcmF0ZWQgU2Vy
dmVyIENlcnRpZmljYXRlMB0GA1UdDgQWBBTlJW0+rw3dP0zyRRk51RTbfpzArTB0
BgNVHSMEbTBrgBT0p8DMkUavZPOR8if4yLJviocyc6FIpEYwRDELMAkGA1UEBhMC
REUxDzANBgNVBAgMBkhlc3NlbjEUMBIGA1UECgwLcHJpdmFjeWlkZWExDjAMBgNV
BAMMBUNBMDAxggkA+8jrrIPNEgcwEwYDVR0lBAwwCgYIKwYBBQUHAwEwDQYJKoZI
hvcNAQELBQADggEBACgZWLUQN0VczWMCwiwirGSqTMC2+3VkiqXa9E2vILTmNrfK
qZxI9BsrJHngTeXUM8Dr7DYv1AuLSSTkLNo90MA2wkR/nYGkFFoiOZBnZkkQvfBa
3XdAWd3jALih0JN9rC9TrrQShmYQN4EGwQRY2D224a5JXGGEjGJmDRtGjTsb//75
eqEguMEpdca9PN1v0khhiP8rQ4fXlrQe0bXkzyZtMut3MjJ6xUPx/exosg6V0dhX
DRQ1btVu4u48NX5w6jD9JXweRCAnziU2eWJjyuE8Oqd5AraVS4yRbhAsVuw9j8FY
xSx2pPKEhR4LwR7fQaaHmsQQHX/ueJ3rrx/cWLc=
-----END CERTIFICATE-----
