Certificate:
    Data:
        Version: 3 (0x2)
        Serial Number: 268435671 (0x100000d7)
    Signature Algorithm: sha256WithRSAEncryption
        Issuer: C=DE, ST=Hessen, O=privacyidea, CN=CA001
        Validity
            Not Before: May 25 17:47:34 2018 GMT
            Not After : May 25 17:47:34 2019 GMT
        Subject: OU=realm1, CN=cornelius/emailAddress=user@localhost.localdomain
        Subject Public Key Info:
            Public Key Algorithm: rsaEncryption
                Public-Key: (2048 bit)
                Modulus:
                    00:ac:04:e3:42:ce:2d:43:1a:ea:8b:67:6b:10:77:
                    a8:d0:af:b3:fb:c8:52:b7:b6:de:7e:b8:36:6e:9b:
                    fe:a3:13:7d:d1:96:43:0a:d7:ba:fd:78:9b:0b:51:
                    0c:2c:1e:68:e6:c4:19:bf:e8:80:f5:9a:79:7e:b5:
                    b1:57:13:8c:30:e9:e8:26:e6:7b:92:15:95:f4:09:
                    71:e9:fa:85:a1:95:82:9f:e6:19:a9:a9:1a:cf:90:
                    ec:fb:54:49:71:77:9d:08:75:4b:ee:ec:f3:fa:f9:
                    43:14:66:03:44:2d:ef:39:10:54:2d:bd:34:b9:fa:
                    5b:af:ad:e3:c7:31:67:f8:e9:79:b5:77:06:73:f7:
                    82:6f:96:dd:0a:c9:29:03:e3:99:c8:41:5b:64:32:
                    48:d7:67:0a:cf:7d:e0:ca:70:e9:6c:63:83:20:75:
                    bd:a9:44:8a:88:16:6a:a0:8b:30:bd:4a:fc:65:6f:
                    05:38:f8:77:f7:96:63:98:62:49:f7:20:fe:e2:88:
                    c4:db:ff:fb:b8:75:f1:2d:a5:de:24:51:d8:40:e4:
                    77:ef:6b:df:ca:66:a3:82:3b:3a:4b:54:17:36:93:
                    b1:17:f9:2f:7a:5d:bd:53:59:ec:0f:2c:34:9b:ed:
                    91:42:84:ab:49:fc:62:ae:d1:7a:56:4c:4d:23:92:
                    01:5d
                Exponent: 65537 (0x10001)
        X509v3 extensions:
            X509v3 Key Usage: 
                Digital Signature, Key Encipherment
            X509v3 Basic Constraints: 
                CA:FALSE
            Netscape Cert Type: 
                SSL Server
            Netscape Comment: 
                OpenSSL Generated Server Certificate
            X509v3 Subject Key Identifier: 
                AC:FE:5E:45:58:FF:35:02:E5:A6:26:11:8F:D1:D6:F9:67:E1:29:DA
            X509v3 Authority Key Identifier: 
                keyid:F4:A7:C0:CC:91:46:AF:64:F3:91:F2:27:F8:C8:B2:6F:8A:87:32:73
                DirName:/C=DE/ST=Hessen/O=privacyidea/CN=CA001
                serial:FB:C8:EB:AC:83:CD:12:07

            X509v3 Extended Key Usage: 
                TLS Web Server Authentication
    Signature Algorithm: sha256WithRSAEncryption
         56:88:94:2b:3e:d2:97:a9:ce:7b:83:1e:09:bc:3c:84:56:3b:
         28:7c:60:3a:9d:ff:b9:fe:7e:8d:6c:12:5c:d1:9b:d5:39:ca:
         a1:a2:74:77:48:12:d7:39:ca:4e:c8:56:8a:43:af:83:bb:2c:
         f7:ee:b5:f4:74:92:7c:a7:e4:61:97:bc:c8:1a:64:27:45:68:
         6a:e9:d8:d0:99:5d:02:75:f8:e4:b0:ad:fb:01:12:b3:f4:12:
         f3:63:12:3b:f7:b3:ed:36:9c:f1:1b:01:b3:35:eb:14:0c:df:
         70:86:d6:b6:e6:f5:f9:36:f7:3a:82:04:e8:7a:5a:5b:57:f3:
         cf:09:cd:cd:85:46:28:ab:44:66:78:1e:ca:a8:1a:ce:72:12:
         98:20:35:fc:f5:e2:4e:c0:dc:f4:3c:54:7d:8f:16:f7:8b:67:
         d2:31:c4:54:b3:7b:c8:cc:ef:2c:57:7b:c5:2b:a4:6a:71:f5:
         40:74:c4:05:0c:94:32:59:7f:63:1f:a7:95:75:1a:67:2d:c8:
         fd:d2:79:57:db:d0:25:2b:47:9f:25:22:5c:c4:f2:a6:1b:55:
         10:24:71:5b:e0:48:5d:d5:19:fc:7c:93:16:3f:ee:48:56:5b:
         6d:d0:8a:79:3c:55:04:45:67:32:6b:76:e2:b5:06:ad:e5:06:
         8b:3a:9b:eb
-----BEGIN CERTIFICATE-----
MIIEIjCCAwqgAwIBAgIEEAAA1zANBgkqhkiG9w0BAQsFADBEMQswCQYDVQQGEwJE
RTEPMA0GA1UECAwGSGVzc2VuMRQwEgYDVQQKDAtwcml2YWN5aWRlYTEOMAwGA1UE
AwwFQ0EwMDEwHhcNMTgwNTI1MTc0NzM0WhcNMTkwNTI1MTc0NzM0WjBQMQ8wDQYD
VQQLDAZyZWFsbTExEjAQBgNVBAMMCWNvcm5lbGl1czEpMCcGCSqGSIb3DQEJARYa
dXNlckBsb2NhbGhvc3QubG9jYWxkb21haW4wggEiMA0GCSqGSIb3DQEBAQUAA4IB
DwAwggEKAoIBAQCsBONCzi1DGuqLZ2sQd6jQr7P7yFK3tt5+uDZum/6jE33RlkMK
17r9eJsLUQwsHmjmxBm/6ID1mnl+tbFXE4ww6egm5nuSFZX0CXHp+oWhlYKf5hmp
qRrPkOz7VElxd50IdUvu7PP6+UMUZgNELe85EFQtvTS5+luvrePHMWf46Xm1dwZz
94Jvlt0KySkD45nIQVtkMkjXZwrPfeDKcOlsY4Mgdb2pRIqIFmqgizC9SvxlbwU4
+Hf3lmOYYkn3IP7iiMTb//u4dfEtpd4kUdhA5Hfva9/KZqOCOzpLVBc2k7EX+S96
Xb1TWewPLDSb7ZFChKtJ/GKu0XpWTE0jkgFdAgMBAAGjggEOMIIBCjALBgNVHQ8E
BAMCBaAwCQYDVR0TBAIwADARBglghkgBhvhCAQEEBAMCBkAwMwYJYIZIAYb4QgEN
BCYWJE9wZW5TU0wgR2VuZXJhdGVkIFNlcnZlciBDZXJ0aWZpY2F0ZTAdBgNVHQ4E
FgQUrP5eRVj/NQLlpiYRj9HW+WfhKdowdAYDVR0jBG0wa4AU9KfAzJFGr2TzkfIn
+Miyb4qHMnOhSKRGMEQxCzAJBgNVBAYTAkRFMQ8wDQYDVQQIDAZIZXNzZW4xFDAS
BgNVBAoMC3ByaXZhY3lpZGVhMQ4wDAYDVQQDDAVDQTAwMYIJAPvI66yDzRIHMBMG
A1UdJQQMMAoGCCsGAQUFBwMBMA0GCSqGSIb3DQEBCwUAA4IBAQBWiJQrPtKXqc57
gx4JvDyEVjsofGA6nf+5/n6NbBJc0ZvVOcqhonR3SBLXOcpOyFaKQ6+Duyz37rX0
dJJ8p+Rhl7zIGmQnRWhq6djQmV0CdfjksK37ARKz9BLzYxI797PtNpzxGwGzNesU
DN9whta25vX5Nvc6ggToelpbV/PPCc3NhUYoq0RmeB7KqBrOchKYIDX89eJOwNz0
PFR9jxb3i2fSMcRUs3vIzO8sV3vFK6RqcfVAdMQFDJQyWX9jH6eVdRpnLcj90nlX
29AlK0efJSJcxPKmG1UQJHFb4Ehd1Rn8fJMWP+5IVltt0Ip5PFUERWcya3bitQat
5QaLOpvr
-----END CERTIFICATE-----
