Certificate:
    Data:
        Version: 3 (0x2)
        Serial Number: 268435686 (0x100000e6)
    Signature Algorithm: sha256WithRSAEncryption
        Issuer: C=DE, ST=Hessen, O=privacyidea, CN=CA001
        Validity
            Not Before: Sep  7 14:03:31 2017 GMT
            Not After : Sep 27 14:03:31 2019 GMT
        Subject: CN=Steve Test/emailAddress=steve@openssl.org
        Subject Public Key Info:
            Public Key Algorithm: rsaEncryption
                Public-Key: (2048 bit)
                Modulus:
                    00:d2:81:89:20:51:48:0f:73:f4:11:32:24:d5:1f:
                    1c:fd:5c:f5:b6:e6:c5:f0:52:81:dc:d2:af:66:4a:
                    7c:93:31:61:5c:af:d1:6d:06:70:03:60:7c:72:0c:
                    88:dd:49:cd:9e:02:6c:d2:5a:d7:53:0f:f3:da:be:
                    69:64:b5:0f:0c:00:e3:b3:50:47:a3:b3:9b:ba:13:
                    50:d6:58:5a:4b:ab:39:e0:11:ca:0a:27:67:03:78:
                    22:66:6d:92:1e:1b:5c:49:ae:e6:6b:d1:8e:3b:9d:
                    06:d3:c6:ac:4d:53:43:10:ab:e8:96:c1:87:82:97:
                    99:8f:20:d3:99:12:37:31:84:e1:8a:ff:29:03:5f:
                    22:90:3e:7f:9b:e0:20:c1:ad:dc:ae:4c:39:1a:31:
                    96:17:02:8c:b2:d9:b4:0d:20:12:9b:7d:86:54:fd:
                    33:fd:c1:2a:62:46:f8:60:96:cf:6e:01:6f:22:df:
                    13:47:e7:97:ec:05:72:23:a3:62:f8:fa:ef:ac:9c:
                    72:f0:37:cb:2f:37:cf:90:a8:27:51:86:c6:d7:78:
                    08:8f:7e:25:a2:15:70:a2:fb:1c:b6:15:5e:a0:97:
                    8b:81:4c:09:28:8a:27:3b:94:bc:71:db:5b:71:37:
                    9a:2b:16:e0:6f:b5:c9:f5:4b:4f:20:ba:65:cf:af:
                    ad:ad
                Exponent: 65537 (0x10001)
        X509v3 extensions:
            X509v3 Key Usage: 
                Digital Signature, Key Encipherment
            X509v3 Basic Constraints: 
                CA:FALSE
            Netscape Cert Type: 
                SSL Server
            Netscape Comment: 
                OpenSSL Generated Server Certificate
            X509v3 Subject Key Identifier: 
                E5:25:6D:3E:AF:0D:DD:3F:4C:F2:45:19:39:D5:14:DB:7E:9C:C0:AD
            X509v3 Authority Key Identifier: 
                keyid:F4:A7:C0:CC:91:46:AF:64:F3:91:F2:27:F8:C8:B2:6F:8A:87:32:73
                DirName:/C=DE/ST=Hessen/O=privacyidea/CN=CA001
                serial:FB:C8:EB:AC:83:CD:12:07

            X509v3 Extended Key Usage: 
                TLS Web Server Authentication
    Signature Algorithm: sha256WithRSAEncryption
         b0:b5:41:39:74:f2:66:bc:68:e9:2d:52:a0:c4:bc:82:14:4d:
         db:58:cd:da:f9:bc:2d:8d:48:65:b1:1a:19:83:af:0e:7a:c1:
         8c:cf:ba:21:40:ef:46:08:46:8f:99:8e:c9:b5:98:2d:4e:06:
         2c:44:9b:69:16:b2:a7:d8:4e:cb:28:11:4a:d1:3d:cd:53:8e:
         e1:a9:46:8c:18:50:41:74:11:70:62:40:34:df:da:72:97:d3:
         04:02:9f:27:e6:d7:d1:cd:b3:c5:bc:15:76:a3:c9:52:a5:0d:
         01:1e:1e:8e:e0:0a:5f:60:0e:87:c1:51:73:f1:c2:dd:a3:8f:
         04:01:94:02:c5:ba:88:85:65:49:4e:78:b0:19:22:fe:75:ad:
         6d:dd:87:e3:20:62:5c:24:96:dd:63:08:02:a7:76:54:42:72:
         71:a4:7c:4f:59:a1:b6:5a:74:09:02:f6:3e:79:f4:a3:8f:c0:
         8b:0d:f1:7d:3e:44:68:2c:e6:af:57:1c:f5:03:33:b7:d4:7f:
         84:49:68:60:6b:8f:a4:0d:7a:dd:8f:54:7f:1b:70:28:93:0d:
         7d:09:8e:69:f9:41:ce:2a:c8:7b:6c:91:d5:19:97:6d:29:66:
         fd:d3:31:49:e1:50:c8:55:1f:57:d1:8e:08:af:b8:05:11:fb:
         c9:7b:62:03
-----BEGIN CERTIFICATE-----
MIIECTCCAvGgAwIBAgIEEAAA5jANBgkqhkiG9w0BAQsFADBEMQswCQYDVQQGEwJE
RTEPMA0GA1UECAwGSGVzc2VuMRQwEgYDVQQKDAtwcml2YWN5aWRlYTEOMAwGA1UE
AwwFQ0EwMDEwHhcNMTcwOTA3MTQwMzMxWhcNMTkwOTI3MTQwMzMxWjA3MRMwEQYD
VQQDDApTdGV2ZSBUZXN0MSAwHgYJKoZIhvcNAQkBFhFzdGV2ZUBvcGVuc3NsLm9y
ZzCCASIwDQYJKoZIhvcNAQEBBQADggEPADCCAQoCggEBANKBiSBRSA9z9BEyJNUf
HP1c9bbmxfBSgdzSr2ZKfJMxYVyv0W0GcANgfHIMiN1JzZ4CbNJa11MP89q+aWS1
DwwA47NQR6Ozm7oTUNZYWkurOeARygonZwN4ImZtkh4bXEmu5mvRjjudBtPGrE1T
QxCr6JbBh4KXmY8g05kSNzGE4Yr/KQNfIpA+f5vgIMGt3K5MORoxlhcCjLLZtA0g
Ept9hlT9M/3BKmJG+GCWz24BbyLfE0fnl+wFciOjYvj676yccvA3yy83z5CoJ1GG
xtd4CI9+JaIVcKL7HLYVXqCXi4FMCSiKJzuUvHHbW3E3misW4G+1yfVLTyC6Zc+v
ra0CAwEAAaOCAQ4wggEKMAsGA1UdDwQEAwIFoDAJBgNVHRMEAjAAMBEGCWCGSAGG
+EIBAQQEAwIGQDAzBglghkgBhvhCAQ0EJhYkT3BlblNTTCBHZW5lcmF0ZWQgU2Vy
dmVyIENlcnRpZmljYXRlMB0GA1UdDgQWBBTlJW0+rw3dP0zyRRk51RTbfpzArTB0
BgNVHSMEbTBrgBT0p8DMkUavZPOR8if4yLJviocyc6FIpEYwRDELMAkGA1UEBhMC
REUxDzANBgNVBAgMBkhlc3NlbjEUMBIGA1UECgwLcHJpdmFjeWlkZWExDjAMBgNV
BAMMBUNBMDAxggkA+8jrrIPNEgcwEwYDVR0lBAwwCgYIKwYBBQUHAwEwDQYJKoZI
hvcNAQELBQADggEBALC1QTl08ma8aOktUqDEvIIUTdtYzdr5vC2NSGWxGhmDrw56
wYzPuiFA70YIRo+Zjsm1mC1OBixEm2kWsqfYTssoEUrRPc1TjuGpRowYUEF0EXBi
QDTf2nKX0wQCnyfm19HNs8W8FXajyVKlDQEeHo7gCl9gDofBUXPxwt2jjwQBlALF
uoiFZUlOeLAZIv51rW3dh+MgYlwklt1jCAKndlRCcnGkfE9ZobZadAkC9j559KOP
wIsN8X0+RGgs5q9XHPUDM7fUf4RJaGBrj6QNet2PVH8bcCiTDX0Jjmn5Qc4qyHts
kdUZl20pZv3TMUnhUMhVH1fRjgivuAUR+8l7YgM=
-----END CERTIFICATE-----
