Certificate:
    Data:
        Version: 3 (0x2)
        Serial Number: 268435666 (0x100000d2)
    Signature Algorithm: sha256WithRSAEncryption
        Issuer: C=DE, ST=Hessen, O=privacyidea, CN=CA001
        Validity
            Not Before: May 25 17:43:31 2018 GMT
            Not After : May 25 17:43:31 2019 GMT
        Subject: C=DE, ST=Hessen, O=privacyidea, CN=requester.localdomain
        Subject Public Key Info:
            Public Key Algorithm: rsaEncryption
                Public-Key: (2048 bit)
                Modulus:
                    00:cd:be:14:4f:fa:ce:01:3f:42:22:1b:1d:9c:af:
                    dd:92:d2:7f:db:6c:b7:3e:39:43:43:6b:13:03:f1:
                    05:f4:07:74:bc:76:69:28:0b:af:19:8e:d7:fc:e3:
                    cd:c6:58:f2:ca:7f:08:6d:53:fc:07:02:44:24:c6:
                    b4:34:4c:8c:04:fe:33:0e:40:e2:20:ba:02:73:5a:
                    f7:f5:4f:63:6e:cc:c6:b6:df:54:1d:37:39:7d:51:
                    36:26:5f:bd:dc:3f:a8:8b:6b:a2:ae:b6:9d:d6:21:
                    e7:df:41:b8:7a:28:2a:68:48:ca:a8:2d:ed:e1:e9:
                    46:5e:5a:72:6d:b4:84:38:87:91:fd:94:11:0b:28:
                    84:c6:c2:2f:2a:fb:01:f9:36:7a:09:75:d1:33:88:
                    3c:73:41:5b:c8:bf:94:89:70:a1:f0:c0:b9:2e:50:
                    53:1e:b1:17:64:69:f4:2d:81:e0:a9:0d:0e:32:e9:
                    ba:55:8a:85:f1:1b:6f:49:79:b4:7f:88:c3:0d:3e:
                    54:88:9b:3d:1f:38:8c:04:f3:ee:6a:63:2b:f5:c6:
                    db:b4:83:aa:c4:78:41:3a:7d:4b:e1:c8:3e:71:ca:
                    1b:61:59:ea:c6:c4:ca:32:5e:c9:e9:bf:12:29:e6:
                    c6:c3:63:fe:a0:55:da:7a:f1:60:98:4d:26:ed:fa:
                    70:2d
                Exponent: 65537 (0x10001)
        X509v3 extensions:
            X509v3 Key Usage: 
                Digital Signature, Key Encipherment
            X509v3 Basic Constraints: 
                CA:FALSE
            Netscape Cert Type: 
                SSL Server
            Netscape Comment: 
                OpenSSL Generated Server Certificate
            X509v3 Subject Key Identifier: 
                53:3F:ED:5D:09:07:B3:65:7B:AB:45:C9:24:5B:09:77:80:0A:96:ED
            X509v3 Authority Key Identifier: 
                keyid:F4:A7:C0:CC:91:46:AF:64:F3:91:F2:27:F8:C8:B2:6F:8A:87:32:73
                DirName:/C=DE/ST=Hessen/O=privacyidea/CN=CA001
                serial:FB:C8:EB:AC:83:CD:12:07

            X509v3 Extended Key Usage: 
                TLS Web Server Authentication
    Signature Algorithm: sha256WithRSAEncryption
         57:e8:3e:4c:44:5b:73:9e:e3:3c:b4:4a:29:6e:90:3d:80:e9:
         8c:24:65:86:38:1f:90:4f:52:0e:f2:49:d2:df:d4:fd:5b:ca:
         8d:fe:7d:e2:89:8f:0a:d3:a1:f0:15:42:27:85:db:8c:a9:28:
         03:20:6b:e7:45:70:d9:d4:72:e9:09:58:cf:ac:fb:db:f4:04:
         5c:4a:9c:c2:66:fc:ea:d7:95:77:2f:b0:9f:ae:64:2d:ee:90:
         6a:fb:dc:d9:f7:9c:ac:ca:35:f0:e2:13:53:7d:87:1a:ce:e3:
         be:30:7d:2f:3e:6d:80:78:09:0d:8b:5b:86:35:e4:0a:80:71:
         a2:93:5f:85:17:73:46:be:71:d0:bc:9b:25:e4:5f:9e:ac:f5:
         f3:d8:5d:64:48:8c:61:89:7c:be:0a:9d:e2:ff:17:bf:7d:bf:
         a0:a3:f8:01:3f:2e:89:5d:35:00:ff:d7:0e:a2:d5:0d:8d:0b:
         96:15:33:10:8d:0f:d8:97:71:ef:6c:3b:55:93:36:ff:45:3b:
         aa:97:ec:3e:9e:33:43:39:55:73:15:a9:7d:fd:70:a2:e3:7c:
         53:c0:6f:1f:44:37:cc:d3:b2:d8:54:8d:4e:e5:ce:4d:23:fc:
         64:b3:bf:1d:80:d7:9a:e5:fc:0b:5f:81:be:35:b1:18:f5:b3:
         60:2c:c7:e3
-----BEGIN CERTIFICATE-----
MIIEJjCCAw6gAwIBAgIEEAAA0jANBgkqhkiG9w0BAQsFADBEMQswCQYDVQQGEwJE
RTEPMA0GA1UECAwGSGVzc2VuMRQwEgYDVQQKDAtwcml2YWN5aWRlYTEOMAwGA1UE
AwwFQ0EwMDEwHhcNMTgwNTI1MTc0MzMxWhcNMTkwNTI1MTc0MzMxWjBUMQswCQYD
VQQGEwJERTEPMA0GA1UECAwGSGVzc2VuMRQwEgYDVQQKDAtwcml2YWN5aWRlYTEe
MBwGA1UEAwwVcmVxdWVzdGVyLmxvY2FsZG9tYWluMIIBIjANBgkqhkiG9w0BAQEF
AAOCAQ8AMIIBCgKCAQEAzb4UT/rOAT9CIhsdnK/dktJ/22y3PjlDQ2sTA/EF9Ad0
vHZpKAuvGY7X/OPNxljyyn8IbVP8BwJEJMa0NEyMBP4zDkDiILoCc1r39U9jbszG
tt9UHTc5fVE2Jl+93D+oi2uirrad1iHn30G4eigqaEjKqC3t4elGXlpybbSEOIeR
/ZQRCyiExsIvKvsB+TZ6CXXRM4g8c0FbyL+UiXCh8MC5LlBTHrEXZGn0LYHgqQ0O
Mum6VYqF8RtvSXm0f4jDDT5UiJs9HziMBPPuamMr9cbbtIOqxHhBOn1L4cg+ccob
YVnqxsTKMl7J6b8SKebGw2P+oFXaevFgmE0m7fpwLQIDAQABo4IBDjCCAQowCwYD
VR0PBAQDAgWgMAkGA1UdEwQCMAAwEQYJYIZIAYb4QgEBBAQDAgZAMDMGCWCGSAGG
+EIBDQQmFiRPcGVuU1NMIEdlbmVyYXRlZCBTZXJ2ZXIgQ2VydGlmaWNhdGUwHQYD
VR0OBBYEFFM/7V0JB7Nle6tFySRbCXeACpbtMHQGA1UdIwRtMGuAFPSnwMyRRq9k
85HyJ/jIsm+KhzJzoUikRjBEMQswCQYDVQQGEwJERTEPMA0GA1UECAwGSGVzc2Vu
MRQwEgYDVQQKDAtwcml2YWN5aWRlYTEOMAwGA1UEAwwFQ0EwMDGCCQD7yOusg80S
BzATBgNVHSUEDDAKBggrBgEFBQcDATANBgkqhkiG9w0BAQsFAAOCAQEAV+g+TERb
c57jPLRKKW6QPYDpjCRlhjgfkE9SDvJJ0t/U/VvKjf594omPCtOh8BVCJ4XbjKko
AyBr50Vw2dRy6QlYz6z72/QEXEqcwmb86teVdy+wn65kLe6Qavvc2fecrMo18OIT
U32HGs7jvjB9Lz5tgHgJDYtbhjXkCoBxopNfhRdzRr5x0LybJeRfnqz189hdZEiM
YYl8vgqd4v8Xv32/oKP4AT8uiV01AP/XDqLVDY0LlhUzEI0P2Jdx72w7VZM2/0U7
qpfsPp4zQzlVcxWpff1wouN8U8BvH0Q3zNOy2FSNTuXOTSP8ZLO/HYDXmuX8C1+B
vjWxGPWzYCzH4w==
-----END CERTIFICATE-----
