Certificate:
    Data:
        Version: 3 (0x2)
        Serial Number: 268435677 (0x100000dd)
    Signature Algorithm: sha256WithRSAEncryption
        Issuer: C=DE, ST=Hessen, O=privacyidea, CN=CA001
        Validity
            Not Before: May 17 10:24:58 2018 GMT
            Not After : May 17 10:24:58 2019 GMT
        Subject: C=DE, ST=Hessen, O=privacyidea, CN=requester.localdomain
        Subject Public Key Info:
            Public Key Algorithm: rsaEncryption
                Public-Key: (2048 bit)
                Modulus:
                    00:cd:be:14:4f:fa:ce:01:3f:42:22:1b:1d:9c:af:
                    dd:92:d2:7f:db:6c:b7:3e:39:43:43:6b:13:03:f1:
                    05:f4:07:74:bc:76:69:28:0b:af:19:8e:d7:fc:e3:
                    cd:c6:58:f2:ca:7f:08:6d:53:fc:07:02:44:24:c6:
                    b4:34:4c:8c:04:fe:33:0e:40:e2:20:ba:02:73:5a:
                    f7:f5:4f:63:6e:cc:c6:b6:df:54:1d:37:39:7d:51:
                    36:26:5f:bd:dc:3f:a8:8b:6b:a2:ae:b6:9d:d6:21:
                    e7:df:41:b8:7a:28:2a:68:48:ca:a8:2d:ed:e1:e9:
                    46:5e:5a:72:6d:b4:84:38:87:91:fd:94:11:0b:28:
                    84:c6:c2:2f:2a:fb:01:f9:36:7a:09:75:d1:33:88:
                    3c:73:41:5b:c8:bf:94:89:70:a1:f0:c0:b9:2e:50:
                    53:1e:b1:17:64:69:f4:2d:81:e0:a9:0d:0e:32:e9:
                    ba:55:8a:85:f1:1b:6f:49:79:b4:7f:88:c3:0d:3e:
                    54:88:9b:3d:1f:38:8c:04:f3:ee:6a:63:2b:f5:c6:
                    db:b4:83:aa:c4:78:41:3a:7d:4b:e1:c8:3e:71:ca:
                    1b:61:59:ea:c6:c4:ca:32:5e:c9:e9:bf:12:29:e6:
                    c6:c3:63:fe:a0:55:da:7a:f1:60:98:4d:26:ed:fa:
                    70:2d
                Exponent: 65537 (0x10001)
        X509v3 extensions:
            X509v3 Key Usage: 
                Digital Signature, Key Encipherment
            X509v3 Basic Constraints: 
                CA:FALSE
            Netscape Cert Type: 
                SSL Server
            Netscape Comment: 
                OpenSSL Generated Server Certificate
            X509v3 Subject Key Identifier: 
                53:3F:ED:5D:09:07:B3:65:7B:AB:45:C9:24:5B:09:77:80:0A:96:ED
            X509v3 Authority Key Identifier: 
                keyid:F4:A7:C0:CC:91:46:AF:64:F3:91:F2:27:F8:C8:B2:6F:8A:87:32:73
                DirName:/C=DE/ST=Hessen/O=privacyidea/CN=CA001
                serial:FB:C8:EB:AC:83:CD:12:07

            X509v3 Extended Key Usage: 
                TLS Web Server Authentication
    Signature Algorithm: sha256WithRSAEncryption
         5a:e9:ca:39:bf:fd:96:98:b8:be:58:99:f1:43:c2:02:35:1f:
         bf:df:a4:df:49:a8:95:0a:ba:aa:c0:3d:b1:5c:7d:a7:b7:de:
         26:bd:a9:d2:9c:0e:6b:73:b0:28:72:d3:6a:f1:b3:8f:10:2d:
         55:d4:2e:da:20:ff:34:54:e9:20:15:b1:33:65:c1:78:7c:08:
         33:01:b1:cd:a3:42:30:b1:9a:14:fd:8f:7d:97:be:61:ab:28:
         bb:33:21:8c:10:c0:ae:11:e6:bc:89:c8:cc:19:fa:b0:b8:c4:
         f8:94:9d:8a:d4:da:08:4c:52:73:6c:e9:a4:23:7e:e7:79:d6:
         ff:21:88:ee:b6:4a:fa:22:2b:f5:11:d7:54:86:4e:5d:fb:c3:
         92:ea:2b:4e:7b:aa:95:2c:0f:6e:68:ce:1d:d7:21:55:f8:da:
         59:02:f7:9e:60:26:92:cb:1a:7d:d3:bb:30:67:5a:95:9a:41:
         78:91:9c:90:92:a1:f0:e3:c6:85:80:5d:63:44:a1:ec:e9:2b:
         87:17:65:8a:90:53:36:2e:00:53:29:56:38:76:52:a8:b5:2e:
         4e:f1:b9:e6:66:b3:4c:24:c0:3d:bf:93:b6:f1:e3:20:53:06:
         b8:aa:9a:03:e5:97:af:99:e1:2a:34:87:2d:48:8e:cb:66:c8:
         c1:17:64:27
-----BEGIN CERTIFICATE-----
MIIEJjCCAw6gAwIBAgIEEAAA3TANBgkqhkiG9w0BAQsFADBEMQswCQYDVQQGEwJE
RTEPMA0GA1UECAwGSGVzc2VuMRQwEgYDVQQKDAtwcml2YWN5aWRlYTEOMAwGA1UE
AwwFQ0EwMDEwHhcNMTgwNTE3MTAyNDU4WhcNMTkwNTE3MTAyNDU4WjBUMQswCQYD
VQQGEwJERTEPMA0GA1UECAwGSGVzc2VuMRQwEgYDVQQKDAtwcml2YWN5aWRlYTEe
MBwGA1UEAwwVcmVxdWVzdGVyLmxvY2FsZG9tYWluMIIBIjANBgkqhkiG9w0BAQEF
AAOCAQ8AMIIBCgKCAQEAzb4UT/rOAT9CIhsdnK/dktJ/22y3PjlDQ2sTA/EF9Ad0
vHZpKAuvGY7X/OPNxljyyn8IbVP8BwJEJMa0NEyMBP4zDkDiILoCc1r39U9jbszG
tt9UHTc5fVE2Jl+93D+oi2uirrad1iHn30G4eigqaEjKqC3t4elGXlpybbSEOIeR
/ZQRCyiExsIvKvsB+TZ6CXXRM4g8c0FbyL+UiXCh8MC5LlBTHrEXZGn0LYHgqQ0O
Mum6VYqF8RtvSXm0f4jDDT5UiJs9HziMBPPuamMr9cbbtIOqxHhBOn1L4cg+ccob
YVnqxsTKMl7J6b8SKebGw2P+oFXaevFgmE0m7fpwLQIDAQABo4IBDjCCAQowCwYD
VR0PBAQDAgWgMAkGA1UdEwQCMAAwEQYJYIZIAYb4QgEBBAQDAgZAMDMGCWCGSAGG
+EIBDQQmFiRPcGVuU1NMIEdlbmVyYXRlZCBTZXJ2ZXIgQ2VydGlmaWNhdGUwHQYD
VR0OBBYEFFM/7V0JB7Nle6tFySRbCXeACpbtMHQGA1UdIwRtMGuAFPSnwMyRRq9k
85HyJ/jIsm+KhzJzoUikRjBEMQswCQYDVQQGEwJERTEPMA0GA1UECAwGSGVzc2Vu
MRQwEgYDVQQKDAtwcml2YWN5aWRlYTEOMAwGA1UEAwwFQ0EwMDGCCQD7yOusg80S
BzATBgNVHSUEDDAKBggrBgEFBQcDATANBgkqhkiG9w0BAQsFAAOCAQEAWunKOb/9
lpi4vliZ8UPCAjUfv9+k30molQq6qsA9sVx9p7feJr2p0pwOa3OwKHLTavGzjxAt
VdQu2iD/NFTpIBWxM2XBeHwIMwGxzaNCMLGaFP2PfZe+YasouzMhjBDArhHmvInI
zBn6sLjE+JSditTaCExSc2zppCN+53nW/yGI7rZK+iIr9RHXVIZOXfvDkuorTnuq
lSwPbmjOHdchVfjaWQL3nmAmkssafdO7MGdalZpBeJGckJKh8OPGhYBdY0Sh7Okr
hxdlipBTNi4AUylWOHZSqLUuTvG55mazTCTAPb+TtvHjIFMGuKqaA+WXr5nhKjSH
LUiOy2bIwRdkJw==
-----END CERTIFICATE-----
