Certificate:
    Data:
        Version: 3 (0x2)
        Serial Number: 268435676 (0x100000dc)
    Signature Algorithm: sha256WithRSAEncryption
        Issuer: C=DE, ST=Hessen, O=privacyidea, CN=CA001
        Validity
            Not Before: May 17 10:21:09 2018 GMT
            Not After : Jun  5 10:21:09 2020 GMT
        Subject: CN=Steve Test/emailAddress=steve@openssl.org
        Subject Public Key Info:
            Public Key Algorithm: rsaEncryption
                Public-Key: (2048 bit)
                Modulus:
                    00:d2:81:89:20:51:48:0f:73:f4:11:32:24:d5:1f:
                    1c:fd:5c:f5:b6:e6:c5:f0:52:81:dc:d2:af:66:4a:
                    7c:93:31:61:5c:af:d1:6d:06:70:03:60:7c:72:0c:
                    88:dd:49:cd:9e:02:6c:d2:5a:d7:53:0f:f3:da:be:
                    69:64:b5:0f:0c:00:e3:b3:50:47:a3:b3:9b:ba:13:
                    50:d6:58:5a:4b:ab:39:e0:11:ca:0a:27:67:03:78:
                    22:66:6d:92:1e:1b:5c:49:ae:e6:6b:d1:8e:3b:9d:
                    06:d3:c6:ac:4d:53:43:10:ab:e8:96:c1:87:82:97:
                    99:8f:20:d3:99:12:37:31:84:e1:8a:ff:29:03:5f:
                    22:90:3e:7f:9b:e0:20:c1:ad:dc:ae:4c:39:1a:31:
                    96:17:02:8c:b2:d9:b4:0d:20:12:9b:7d:86:54:fd:
                    33:fd:c1:2a:62:46:f8:60:96:cf:6e:01:6f:22:df:
                    13:47:e7:97:ec:05:72:23:a3:62:f8:fa:ef:ac:9c:
                    72:f0:37:cb:2f:37:cf:90:a8:27:51:86:c6:d7:78:
                    08:8f:7e:25:a2:15:70:a2:fb:1c:b6:15:5e:a0:97:
                    8b:81:4c:09:28:8a:27:3b:94:bc:71:db:5b:71:37:
                    9a:2b:16:e0:6f:b5:c9:f5:4b:4f:20:ba:65:cf:af:
                    ad:ad
                Exponent: 65537 (0x10001)
        X509v3 extensions:
            X509v3 Key Usage: 
                Digital Signature, Key Encipherment
            X509v3 Basic Constraints: 
                CA:FALSE
            Netscape Cert Type: 
                SSL Server
            Netscape Comment: 
                OpenSSL Generated Server Certificate
            X509v3 Subject Key Identifier: 
                E5:25:6D:3E:AF:0D:DD:3F:4C:F2:45:19:39:D5:14:DB:7E:9C:C0:AD
            X509v3 Authority Key Identifier: 
                keyid:F4:A7:C0:CC:91:46:AF:64:F3:91:F2:27:F8:C8:B2:6F:8A:87:32:73
                DirName:/C=DE/ST=Hessen/O=privacyidea/CN=CA001
                serial:FB:C8:EB:AC:83:CD:12:07

            X509v3 Extended Key Usage: 
                TLS Web Server Authentication
    Signature Algorithm: sha256WithRSAEncryption
         5f:15:d8:62:1a:24:6e:3a:4f:f0:d0:0b:68:c0:85:e9:2f:33:
         34:41:46:2e:56:02:4f:76:d6:8d:41:9b:df:79:b5:bf:0c:62:
         c3:5a:2c:91:81:1b:9c:8d:0f:26:7b:8c:cf:b1:36:11:17:db:
         8b:64:17:c5:3e:ce:3a:44:3a:84:7c:df:78:04:bb:c9:56:19:
         79:4d:51:53:e5:9c:9d:b2:6d:ee:ad:87:3f:a7:da:f3:e6:c2:
         f7:94:bd:a3:51:d7:f7:6e:5c:d5:5d:73:0e:29:6f:37:c5:eb:
         09:18:fc:76:4f:9d:5b:ad:f2:d6:d6:9a:a9:e9:73:38:f0:d5:
         2d:b4:03:62:74:0d:34:b1:3a:11:f1:ae:6c:b7:40:bd:b0:35:
         a2:0e:fc:da:8a:f5:14:b0:6b:c6:9d:03:cc:07:8b:19:9c:c8:
         a1:8e:79:88:52:4a:54:96:32:a5:23:ec:f6:02:77:c6:c0:79:
         3d:f2:1f:9c:dc:e8:2e:40:10:6e:fe:d8:2a:97:9c:0b:12:a0:
         40:d5:65:91:e1:65:c6:30:fe:f8:ca:f2:74:d0:0d:85:3a:20:
         4d:57:af:48:37:83:ed:e4:50:08:1a:9e:51:40:f2:42:91:95:
         10:33:3e:b6:01:8c:44:7c:a9:76:c0:09:69:fb:a9:e6:b7:ff:
         37:54:3a:dd
-----BEGIN CERTIFICATE-----
MIIECTCCAvGgAwIBAgIEEAAA3DANBgkqhkiG9w0BAQsFADBEMQswCQYDVQQGEwJE
RTEPMA0GA1UECAwGSGVzc2VuMRQwEgYDVQQKDAtwcml2YWN5aWRlYTEOMAwGA1UE
AwwFQ0EwMDEwHhcNMTgwNTE3MTAyMTA5WhcNMjAwNjA1MTAyMTA5WjA3MRMwEQYD
VQQDDApTdGV2ZSBUZXN0MSAwHgYJKoZIhvcNAQkBFhFzdGV2ZUBvcGVuc3NsLm9y
ZzCCASIwDQYJKoZIhvcNAQEBBQADggEPADCCAQoCggEBANKBiSBRSA9z9BEyJNUf
HP1c9bbmxfBSgdzSr2ZKfJMxYVyv0W0GcANgfHIMiN1JzZ4CbNJa11MP89q+aWS1
DwwA47NQR6Ozm7oTUNZYWkurOeARygonZwN4ImZtkh4bXEmu5mvRjjudBtPGrE1T
QxCr6JbBh4KXmY8g05kSNzGE4Yr/KQNfIpA+f5vgIMGt3K5MORoxlhcCjLLZtA0g
Ept9hlT9M/3BKmJG+GCWz24BbyLfE0fnl+wFciOjYvj676yccvA3yy83z5CoJ1GG
xtd4CI9+JaIVcKL7HLYVXqCXi4FMCSiKJzuUvHHbW3E3misW4G+1yfVLTyC6Zc+v
ra0CAwEAAaOCAQ4wggEKMAsGA1UdDwQEAwIFoDAJBgNVHRMEAjAAMBEGCWCGSAGG
+EIBAQQEAwIGQDAzBglghkgBhvhCAQ0EJhYkT3BlblNTTCBHZW5lcmF0ZWQgU2Vy
dmVyIENlcnRpZmljYXRlMB0GA1UdDgQWBBTlJW0+rw3dP0zyRRk51RTbfpzArTB0
BgNVHSMEbTBrgBT0p8DMkUavZPOR8if4yLJviocyc6FIpEYwRDELMAkGA1UEBhMC
REUxDzANBgNVBAgMBkhlc3NlbjEUMBIGA1UECgwLcHJpdmFjeWlkZWExDjAMBgNV
BAMMBUNBMDAxggkA+8jrrIPNEgcwEwYDVR0lBAwwCgYIKwYBBQUHAwEwDQYJKoZI
hvcNAQELBQADggEBAF8V2GIaJG46T/DQC2jAhekvMzRBRi5WAk921o1Bm995tb8M
YsNaLJGBG5yNDyZ7jM+xNhEX24tkF8U+zjpEOoR833gEu8lWGXlNUVPlnJ2ybe6t
hz+n2vPmwveUvaNR1/duXNVdcw4pbzfF6wkY/HZPnVut8tbWmqnpczjw1S20A2J0
DTSxOhHxrmy3QL2wNaIO/NqK9RSwa8adA8wHixmcyKGOeYhSSlSWMqUj7PYCd8bA
eT3yH5zc6C5AEG7+2CqXnAsSoEDVZZHhZcYw/vjK8nTQDYU6IE1Xr0g3g+3kUAga
nlFA8kKRlRAzPrYBjER8qXbACWn7qea3/zdUOt0=
-----END CERTIFICATE-----
