Certificate:
    Data:
        Version: 3 (0x2)
        Serial Number: 268435667 (0x100000d3)
    Signature Algorithm: sha256WithRSAEncryption
        Issuer: C=DE, ST=Hessen, O=privacyidea, CN=CA001
        Validity
            Not Before: May 25 17:43:32 2018 GMT
            Not After : May 25 17:43:32 2019 GMT
        Subject: C=DE, ST=Hessen, O=privacyidea, CN=usercert
        Subject Public Key Info:
            Public Key Algorithm: rsaEncryption
                Public-Key: (2048 bit)
                Modulus:
                    00:dc:2f:d1:5f:29:97:d4:7c:c3:53:c8:30:bd:4b:
                    67:70:2c:24:6b:b8:5e:eb:21:7a:48:12:56:7c:81:
                    5c:48:75:b6:68:eb:f6:f2:98:4e:50:51:d1:7f:6c:
                    73:f3:0a:a7:ae:be:48:5e:e5:d6:e1:d9:2a:7c:32:
                    6e:4e:fd:08:f6:5a:54:49:23:73:c3:b9:07:18:d1:
                    ef:b3:ac:f8:8a:dc:94:96:a4:90:3a:8e:74:df:e6:
                    0d:37:1b:bd:5b:b7:25:1a:56:39:da:6f:91:aa:5e:
                    1c:74:f3:f9:7c:14:01:83:12:65:76:c7:bb:fe:36:
                    5b:95:e9:72:65:83:ed:3e:98:30:71:fa:87:dd:a3:
                    36:5a:30:03:2e:26:e0:61:d1:bf:02:3f:b6:06:1f:
                    4a:89:28:1c:5c:a2:ff:4e:be:94:e6:8c:e0:da:82:
                    f1:9d:29:32:48:30:73:b4:04:f6:42:1e:be:f7:e2:
                    32:32:27:3c:9d:89:2f:70:3e:85:9a:6f:5c:c5:09:
                    c0:8c:32:2f:72:22:c9:d2:95:1f:b6:ac:72:60:72:
                    b7:82:4d:6b:ce:5b:e3:00:d0:d2:2f:58:c6:e0:10:
                    e5:51:ca:4d:3b:2e:e6:7e:ab:84:d6:56:f1:93:35:
                    a0:93:64:26:81:75:2f:91:b5:16:06:38:0b:db:cc:
                    2d:07
                Exponent: 65537 (0x10001)
        X509v3 extensions:
            X509v3 Key Usage: 
                Digital Signature, Key Encipherment
            X509v3 Basic Constraints: 
                CA:FALSE
            Netscape Cert Type: 
                SSL Server
            Netscape Comment: 
                OpenSSL Generated Server Certificate
            X509v3 Subject Key Identifier: 
                FC:14:D1:F0:4B:8D:00:90:F2:F5:B8:71:9E:4E:97:C3:92:54:AD:0B
            X509v3 Authority Key Identifier: 
                keyid:F4:A7:C0:CC:91:46:AF:64:F3:91:F2:27:F8:C8:B2:6F:8A:87:32:73
                DirName:/C=DE/ST=Hessen/O=privacyidea/CN=CA001
                serial:FB:C8:EB:AC:83:CD:12:07

            X509v3 Extended Key Usage: 
                TLS Web Server Authentication
    Signature Algorithm: sha256WithRSAEncryption
         78:8c:cc:c4:f3:52:a7:c1:3c:d1:57:5b:42:fa:18:e6:ed:68:
         df:b9:fa:f6:e0:41:94:0e:7e:fa:12:81:86:2c:90:73:47:8b:
         15:61:ec:ec:8b:0b:00:e5:86:74:bd:cc:fa:18:ee:83:81:ad:
         c1:58:4e:53:b2:e7:5c:09:ec:72:4c:0f:b8:43:87:d4:cb:cb:
         05:92:f8:c3:65:0e:e4:da:e0:7c:ce:17:6a:96:22:bd:70:0a:
         4b:c4:14:07:4c:85:e4:d8:74:ca:fd:59:d9:55:f8:e0:88:95:
         04:f2:89:6f:91:74:e9:dc:49:0a:39:a2:0c:29:e6:d6:9d:0c:
         cd:fc:d8:61:4a:d5:0e:67:f0:07:f2:f6:b6:70:50:d7:32:d3:
         05:8e:bb:73:43:cb:6c:11:b3:e7:59:b7:08:14:56:70:dd:61:
         8c:4f:a3:e5:96:4c:e2:f3:6d:c1:62:6f:4b:fc:24:9a:22:62:
         15:9e:52:23:75:da:07:a3:b8:d1:c0:46:95:c8:1e:de:5b:df:
         d8:e6:c8:b0:28:8d:96:f1:e4:22:16:af:9a:d9:e5:c7:20:50:
         ab:89:fc:f8:01:33:50:ee:ff:ec:22:11:08:40:14:cd:1b:d0:
         f5:93:6b:ac:5f:b4:cc:04:0e:83:4a:94:2a:a6:62:94:f6:7d:
         fb:1b:0a:68
-----BEGIN CERTIFICATE-----
MIIEGTCCAwGgAwIBAgIEEAAA0zANBgkqhkiG9w0BAQsFADBEMQswCQYDVQQGEwJE
RTEPMA0GA1UECAwGSGVzc2VuMRQwEgYDVQQKDAtwcml2YWN5aWRlYTEOMAwGA1UE
AwwFQ0EwMDEwHhcNMTgwNTI1MTc0MzMyWhcNMTkwNTI1MTc0MzMyWjBHMQswCQYD
VQQGEwJERTEPMA0GA1UECAwGSGVzc2VuMRQwEgYDVQQKDAtwcml2YWN5aWRlYTER
MA8GA1UEAwwIdXNlcmNlcnQwggEiMA0GCSqGSIb3DQEBAQUAA4IBDwAwggEKAoIB
AQDcL9FfKZfUfMNTyDC9S2dwLCRruF7rIXpIElZ8gVxIdbZo6/bymE5QUdF/bHPz
Cqeuvkhe5dbh2Sp8Mm5O/Qj2WlRJI3PDuQcY0e+zrPiK3JSWpJA6jnTf5g03G71b
tyUaVjnab5GqXhx08/l8FAGDEmV2x7v+NluV6XJlg+0+mDBx+ofdozZaMAMuJuBh
0b8CP7YGH0qJKBxcov9OvpTmjODagvGdKTJIMHO0BPZCHr734jIyJzydiS9wPoWa
b1zFCcCMMi9yIsnSlR+2rHJgcreCTWvOW+MA0NIvWMbgEOVRyk07LuZ+q4TWVvGT
NaCTZCaBdS+RtRYGOAvbzC0HAgMBAAGjggEOMIIBCjALBgNVHQ8EBAMCBaAwCQYD
VR0TBAIwADARBglghkgBhvhCAQEEBAMCBkAwMwYJYIZIAYb4QgENBCYWJE9wZW5T
U0wgR2VuZXJhdGVkIFNlcnZlciBDZXJ0aWZpY2F0ZTAdBgNVHQ4EFgQU/BTR8EuN
AJDy9bhxnk6Xw5JUrQswdAYDVR0jBG0wa4AU9KfAzJFGr2TzkfIn+Miyb4qHMnOh
SKRGMEQxCzAJBgNVBAYTAkRFMQ8wDQYDVQQIDAZIZXNzZW4xFDASBgNVBAoMC3By
aXZhY3lpZGVhMQ4wDAYDVQQDDAVDQTAwMYIJAPvI66yDzRIHMBMGA1UdJQQMMAoG
CCsGAQUFBwMBMA0GCSqGSIb3DQEBCwUAA4IBAQB4jMzE81KnwTzRV1tC+hjm7Wjf
ufr24EGUDn76EoGGLJBzR4sVYezsiwsA5YZ0vcz6GO6Dga3BWE5TsudcCexyTA+4
Q4fUy8sFkvjDZQ7k2uB8zhdqliK9cApLxBQHTIXk2HTK/VnZVfjgiJUE8olvkXTp
3EkKOaIMKebWnQzN/NhhStUOZ/AH8va2cFDXMtMFjrtzQ8tsEbPnWbcIFFZw3WGM
T6Pllkzi823BYm9L/CSaImIVnlIjddoHo7jRwEaVyB7eW9/Y5siwKI2W8eQiFq+a
2eXHIFCrifz4ATNQ7v/sIhEIQBTNG9D1k2usX7TMBA6DSpQqpmKU9n37Gwpo
-----END CERTIFICATE-----
