Certificate:
    Data:
        Version: 3 (0x2)
        Serial Number: 268435675 (0x100000db)
    Signature Algorithm: sha256WithRSAEncryption
        Issuer: C=DE, ST=Hessen, O=privacyidea, CN=CA001
        Validity
            Not Before: May 17 10:21:09 2018 GMT
            Not After : May 17 10:21:09 2019 GMT
        Subject: CN=Steve Test/emailAddress=steve@openssl.org
        Subject Public Key Info:
            Public Key Algorithm: rsaEncryption
                Public-Key: (2048 bit)
                Modulus:
                    00:d2:81:89:20:51:48:0f:73:f4:11:32:24:d5:1f:
                    1c:fd:5c:f5:b6:e6:c5:f0:52:81:dc:d2:af:66:4a:
                    7c:93:31:61:5c:af:d1:6d:06:70:03:60:7c:72:0c:
                    88:dd:49:cd:9e:02:6c:d2:5a:d7:53:0f:f3:da:be:
                    69:64:b5:0f:0c:00:e3:b3:50:47:a3:b3:9b:ba:13:
                    50:d6:58:5a:4b:ab:39:e0:11:ca:0a:27:67:03:78:
                    22:66:6d:92:1e:1b:5c:49:ae:e6:6b:d1:8e:3b:9d:
                    06:d3:c6:ac:4d:53:43:10:ab:e8:96:c1:87:82:97:
                    99:8f:20:d3:99:12:37:31:84:e1:8a:ff:29:03:5f:
                    22:90:3e:7f:9b:e0:20:c1:ad:dc:ae:4c:39:1a:31:
                    96:17:02:8c:b2:d9:b4:0d:20:12:9b:7d:86:54:fd:
                    33:fd:c1:2a:62:46:f8:60:96:cf:6e:01:6f:22:df:
                    13:47:e7:97:ec:05:72:23:a3:62:f8:fa:ef:ac:9c:
                    72:f0:37:cb:2f:37:cf:90:a8:27:51:86:c6:d7:78:
                    08:8f:7e:25:a2:15:70:a2:fb:1c:b6:15:5e:a0:97:
                    8b:81:4c:09:28:8a:27:3b:94:bc:71:db:5b:71:37:
                    9a:2b:16:e0:6f:b5:c9:f5:4b:4f:20:ba:65:cf:af:
                    ad:ad
                Exponent: 65537 (0x10001)
        X509v3 extensions:
            X509v3 Key Usage: 
                Digital Signature, Key Encipherment
            X509v3 Basic Constraints: 
                CA:FALSE
            Netscape Cert Type: 
                SSL Server
            Netscape Comment: 
                OpenSSL Generated Server Certificate
            X509v3 Subject Key Identifier: 
                E5:25:6D:3E:AF:0D:DD:3F:4C:F2:45:19:39:D5:14:DB:7E:9C:C0:AD
            X509v3 Authority Key Identifier: 
                keyid:F4:A7:C0:CC:91:46:AF:64:F3:91:F2:27:F8:C8:B2:6F:8A:87:32:73
                DirName:/C=DE/ST=Hessen/O=privacyidea/CN=CA001
                serial:FB:C8:EB:AC:83:CD:12:07

            X509v3 Extended Key Usage: 
                TLS Web Server Authentication
    Signature Algorithm: sha256WithRSAEncryption
         ad:20:ee:fc:ed:22:75:b2:ae:a8:4c:f2:3c:09:1b:29:a7:42:
         04:c4:4c:4d:a5:55:d9:2f:12:6b:11:75:48:0f:6a:60:69:7f:
         16:f5:b5:1b:65:8c:6b:5d:55:7d:f3:02:a3:f6:6e:1f:8c:85:
         e0:74:a6:74:eb:83:42:89:a2:d7:9b:e6:1d:75:63:e3:4c:22:
         88:1e:1e:c7:92:cf:ee:8e:ee:a2:03:0f:19:40:20:80:ac:03:
         69:a3:87:0e:e1:87:b5:cd:40:d3:b5:2b:ca:ae:b1:8f:a8:67:
         ea:9a:05:1a:66:50:5e:7e:7b:10:48:a6:f7:d5:dc:d4:3f:85:
         c7:e9:6b:ec:bf:92:91:01:82:f0:98:e6:ba:a1:61:f9:5f:8b:
         f7:d7:39:59:c3:fb:1c:57:7b:68:15:5a:fa:82:68:77:4d:72:
         7a:06:a5:e5:71:fb:e1:e0:29:a0:76:8e:65:bd:60:50:7a:e3:
         a6:88:98:9a:3a:a0:d3:d3:30:3b:26:fa:5a:b1:99:da:e3:b8:
         14:04:f2:62:8f:a5:29:76:0a:6e:33:0b:7e:1f:83:38:c5:6d:
         4e:51:7a:c9:6f:8a:bc:b6:88:9b:07:0b:db:b8:53:ee:89:7a:
         45:e6:43:fe:7b:59:b0:d2:cc:00:62:ec:a7:3f:8a:84:5c:7b:
         88:73:73:8f
-----BEGIN CERTIFICATE-----
MIIECTCCAvGgAwIBAgIEEAAA2zANBgkqhkiG9w0BAQsFADBEMQswCQYDVQQGEwJE
RTEPMA0GA1UECAwGSGVzc2VuMRQwEgYDVQQKDAtwcml2YWN5aWRlYTEOMAwGA1UE
AwwFQ0EwMDEwHhcNMTgwNTE3MTAyMTA5WhcNMTkwNTE3MTAyMTA5WjA3MRMwEQYD
VQQDDApTdGV2ZSBUZXN0MSAwHgYJKoZIhvcNAQkBFhFzdGV2ZUBvcGVuc3NsLm9y
ZzCCASIwDQYJKoZIhvcNAQEBBQADggEPADCCAQoCggEBANKBiSBRSA9z9BEyJNUf
HP1c9bbmxfBSgdzSr2ZKfJMxYVyv0W0GcANgfHIMiN1JzZ4CbNJa11MP89q+aWS1
DwwA47NQR6Ozm7oTUNZYWkurOeARygonZwN4ImZtkh4bXEmu5mvRjjudBtPGrE1T
QxCr6JbBh4KXmY8g05kSNzGE4Yr/KQNfIpA+f5vgIMGt3K5MORoxlhcCjLLZtA0g
Ept9hlT9M/3BKmJG+GCWz24BbyLfE0fnl+wFciOjYvj676yccvA3yy83z5CoJ1GG
xtd4CI9+JaIVcKL7HLYVXqCXi4FMCSiKJzuUvHHbW3E3misW4G+1yfVLTyC6Zc+v
ra0CAwEAAaOCAQ4wggEKMAsGA1UdDwQEAwIFoDAJBgNVHRMEAjAAMBEGCWCGSAGG
+EIBAQQEAwIGQDAzBglghkgBhvhCAQ0EJhYkT3BlblNTTCBHZW5lcmF0ZWQgU2Vy
dmVyIENlcnRpZmljYXRlMB0GA1UdDgQWBBTlJW0+rw3dP0zyRRk51RTbfpzArTB0
BgNVHSMEbTBrgBT0p8DMkUavZPOR8if4yLJviocyc6FIpEYwRDELMAkGA1UEBhMC
REUxDzANBgNVBAgMBkhlc3NlbjEUMBIGA1UECgwLcHJpdmFjeWlkZWExDjAMBgNV
BAMMBUNBMDAxggkA+8jrrIPNEgcwEwYDVR0lBAwwCgYIKwYBBQUHAwEwDQYJKoZI
hvcNAQELBQADggEBAK0g7vztInWyrqhM8jwJGymnQgTETE2lVdkvEmsRdUgPamBp
fxb1tRtljGtdVX3zAqP2bh+MheB0pnTrg0KJoteb5h11Y+NMIogeHseSz+6O7qID
DxlAIICsA2mjhw7hh7XNQNO1K8qusY+oZ+qaBRpmUF5+exBIpvfV3NQ/hcfpa+y/
kpEBgvCY5rqhYflfi/fXOVnD+xxXe2gVWvqCaHdNcnoGpeVx++HgKaB2jmW9YFB6
46aImJo6oNPTMDsm+lqxmdrjuBQE8mKPpSl2Cm4zC34fgzjFbU5Reslviry2iJsH
C9u4U+6JekXmQ/57WbDSzABi7Kc/ioRce4hzc48=
-----END CERTIFICATE-----
