Certificate:
    Data:
        Version: 3 (0x2)
        Serial Number: 268435679 (0x100000df)
    Signature Algorithm: sha256WithRSAEncryption
        Issuer: C=DE, ST=Hessen, O=privacyidea, CN=CA001
        Validity
            Not Before: May 17 10:33:22 2018 GMT
            Not After : May 17 10:33:22 2019 GMT
        Subject: CN=selfservice,CN=user,O=realm1/emailAddress=meine
        Subject Public Key Info:
            Public Key Algorithm: rsaEncryption
                Public-Key: (2048 bit)
                Modulus:
                    00:cf:3c:d4:33:0e:12:c4:e6:da:cd:b6:56:a1:1c:
                    26:bb:26:1c:8a:4a:73:a8:58:8a:b6:1e:b3:8b:99:
                    d2:1d:07:c2:92:89:79:c0:69:d8:c8:df:28:61:98:
                    1e:b3:fe:ae:2b:bd:78:a9:f7:6e:47:dc:a3:a0:16:
                    8c:85:02:c1:4e:92:fd:72:6e:f0:c8:03:29:9b:b8:
                    00:6e:c0:83:95:c8:34:20:36:9c:b3:e5:e4:e6:76:
                    73:a3:1a:ad:40:96:e0:53:54:00:ec:76:79:9a:c6:
                    0d:7e:b6:bd:29:ec:83:f3:cb:89:a4:cb:6c:00:ba:
                    0c:c5:78:0f:ff:69:b8:94:f4:04:70:43:3f:d8:9e:
                    d7:a7:fb:5d:ce:75:8e:da:e7:c4:07:b1:9d:de:6f:
                    88:4b:b6:4d:9a:cf:f9:bc:fa:9f:cd:32:6d:f6:3a:
                    0b:0d:23:42:78:ec:97:42:bf:0e:4d:60:56:e1:d3:
                    02:f2:19:cb:84:57:90:e5:70:a1:a2:83:35:86:e2:
                    da:86:9f:f9:8a:c4:79:b3:52:28:da:cb:bb:34:ca:
                    d3:da:91:4a:cf:8d:76:a2:b2:6b:9b:f9:96:fd:09:
                    2a:da:11:23:4d:f0:cb:d6:b2:b1:0e:12:6c:9a:19:
                    65:98:87:ca:e4:ee:24:ce:44:ac:90:8f:9d:1b:c5:
                    2a:9d
                Exponent: 65537 (0x10001)
        X509v3 extensions:
            X509v3 Key Usage: 
                Digital Signature, Key Encipherment
            X509v3 Basic Constraints: 
                CA:FALSE
            Netscape Cert Type: 
                SSL Server
            Netscape Comment: 
                OpenSSL Generated Server Certificate
            X509v3 Subject Key Identifier: 
                4D:07:90:AD:FF:1D:0D:E7:1A:DD:D6:2E:FA:BA:34:CB:AA:1F:24:C6
            X509v3 Authority Key Identifier: 
                keyid:F4:A7:C0:CC:91:46:AF:64:F3:91:F2:27:F8:C8:B2:6F:8A:87:32:73
                DirName:/C=DE/ST=Hessen/O=privacyidea/CN=CA001
                serial:FB:C8:EB:AC:83:CD:12:07

            X509v3 Extended Key Usage: 
                TLS Web Server Authentication
    Signature Algorithm: sha256WithRSAEncryption
         5d:2f:54:40:78:c5:b5:c0:78:98:f9:03:2e:f8:da:0c:23:30:
         4c:8f:4d:22:39:f7:d5:a6:db:bb:53:98:5d:4d:5e:fc:bf:83:
         6d:cf:77:48:3a:d0:cb:65:90:98:9a:d7:88:ab:c9:81:62:a7:
         58:7a:4e:cd:3c:3e:75:b1:f3:6d:72:f8:d2:ff:53:d1:56:2a:
         b5:b4:3d:bc:89:62:f6:68:96:91:bd:95:3e:0a:0b:93:93:46:
         63:02:d2:08:47:a1:b2:8a:f0:dd:3d:39:36:1d:0b:e4:e0:0a:
         f5:b5:59:bb:6d:bd:d7:10:e3:62:c8:30:4a:cd:6b:7d:6a:c5:
         a2:36:e1:13:94:95:cc:60:70:fe:8d:55:34:34:b4:af:f0:0d:
         7a:eb:c7:fe:db:29:8d:1d:04:0b:4f:36:d2:43:d4:fc:18:09:
         41:b5:df:d3:32:f3:68:86:4b:44:0d:cd:a9:48:29:09:9e:55:
         30:50:60:90:57:00:c2:fb:e0:10:64:7d:19:3f:67:60:23:3a:
         5a:b8:bb:89:cf:7f:88:63:3d:44:a8:2a:f2:91:7e:72:d9:56:
         f1:5b:6d:50:61:d4:27:8c:fb:da:50:79:b4:c0:75:bb:9f:b3:
         c3:81:a7:5b:dc:23:2b:93:ec:62:eb:d8:66:95:5e:fe:f8:d9:
         c0:15:95:70
-----BEGIN CERTIFICATE-----
MIIEDzCCAvegAwIBAgIEEAAA3zANBgkqhkiG9w0BAQsFADBEMQswCQYDVQQGEwJE
RTEPMA0GA1UECAwGSGVzc2VuMRQwEgYDVQQKDAtwcml2YWN5aWRlYTEOMAwGA1UE
AwwFQ0EwMDEwHhcNMTgwNTE3MTAzMzIyWhcNMTkwNTE3MTAzMzIyWjA9MSUwIwYD
VQQDDBxzZWxmc2VydmljZSxDTj11c2VyLE89cmVhbG0xMRQwEgYJKoZIhvcNAQkB
FgVtZWluZTCCASIwDQYJKoZIhvcNAQEBBQADggEPADCCAQoCggEBAM881DMOEsTm
2s22VqEcJrsmHIpKc6hYirYes4uZ0h0HwpKJecBp2MjfKGGYHrP+riu9eKn3bkfc
o6AWjIUCwU6S/XJu8MgDKZu4AG7Ag5XINCA2nLPl5OZ2c6MarUCW4FNUAOx2eZrG
DX62vSnsg/PLiaTLbAC6DMV4D/9puJT0BHBDP9ie16f7Xc51jtrnxAexnd5viEu2
TZrP+bz6n80ybfY6Cw0jQnjsl0K/Dk1gVuHTAvIZy4RXkOVwoaKDNYbi2oaf+YrE
ebNSKNrLuzTK09qRSs+NdqKya5v5lv0JKtoRI03wy9aysQ4SbJoZZZiHyuTuJM5E
rJCPnRvFKp0CAwEAAaOCAQ4wggEKMAsGA1UdDwQEAwIFoDAJBgNVHRMEAjAAMBEG
CWCGSAGG+EIBAQQEAwIGQDAzBglghkgBhvhCAQ0EJhYkT3BlblNTTCBHZW5lcmF0
ZWQgU2VydmVyIENlcnRpZmljYXRlMB0GA1UdDgQWBBRNB5Ct/x0N5xrd1i76ujTL
qh8kxjB0BgNVHSMEbTBrgBT0p8DMkUavZPOR8if4yLJviocyc6FIpEYwRDELMAkG
A1UEBhMCREUxDzANBgNVBAgMBkhlc3NlbjEUMBIGA1UECgwLcHJpdmFjeWlkZWEx
DjAMBgNVBAMMBUNBMDAxggkA+8jrrIPNEgcwEwYDVR0lBAwwCgYIKwYBBQUHAwEw
DQYJKoZIhvcNAQELBQADggEBAF0vVEB4xbXAeJj5Ay742gwjMEyPTSI599Wm27tT
mF1NXvy/g23Pd0g60MtlkJia14iryYFip1h6Ts08PnWx821y+NL/U9FWKrW0PbyJ
YvZolpG9lT4KC5OTRmMC0ghHobKK8N09OTYdC+TgCvW1WbttvdcQ42LIMErNa31q
xaI24ROUlcxgcP6NVTQ0tK/wDXrrx/7bKY0dBAtPNtJD1PwYCUG139My82iGS0QN
zalIKQmeVTBQYJBXAML74BBkfRk/Z2AjOlq4u4nPf4hjPUSoKvKRfnLZVvFbbVBh
1CeM+9pQebTAdbufs8OBp1vcIyuT7GLr2GaVXv742cAVlXA=
-----END CERTIFICATE-----
