Certificate:
    Data:
        Version: 3 (0x2)
        Serial Number: 268435684 (0x100000e4)
    Signature Algorithm: sha256WithRSAEncryption
        Issuer: C=DE, ST=Hessen, O=privacyidea, CN=CA001
        Validity
            Not Before: Jan 22 13:48:05 2018 GMT
            Not After : Jan 22 13:48:05 2019 GMT
        Subject: CN=selfservice,CN=user,O=realm1/emailAddress=meine
        Subject Public Key Info:
            Public Key Algorithm: rsaEncryption
                Public-Key: (2048 bit)
                Modulus:
                    00:cf:3c:d4:33:0e:12:c4:e6:da:cd:b6:56:a1:1c:
                    26:bb:26:1c:8a:4a:73:a8:58:8a:b6:1e:b3:8b:99:
                    d2:1d:07:c2:92:89:79:c0:69:d8:c8:df:28:61:98:
                    1e:b3:fe:ae:2b:bd:78:a9:f7:6e:47:dc:a3:a0:16:
                    8c:85:02:c1:4e:92:fd:72:6e:f0:c8:03:29:9b:b8:
                    00:6e:c0:83:95:c8:34:20:36:9c:b3:e5:e4:e6:76:
                    73:a3:1a:ad:40:96:e0:53:54:00:ec:76:79:9a:c6:
                    0d:7e:b6:bd:29:ec:83:f3:cb:89:a4:cb:6c:00:ba:
                    0c:c5:78:0f:ff:69:b8:94:f4:04:70:43:3f:d8:9e:
                    d7:a7:fb:5d:ce:75:8e:da:e7:c4:07:b1:9d:de:6f:
                    88:4b:b6:4d:9a:cf:f9:bc:fa:9f:cd:32:6d:f6:3a:
                    0b:0d:23:42:78:ec:97:42:bf:0e:4d:60:56:e1:d3:
                    02:f2:19:cb:84:57:90:e5:70:a1:a2:83:35:86:e2:
                    da:86:9f:f9:8a:c4:79:b3:52:28:da:cb:bb:34:ca:
                    d3:da:91:4a:cf:8d:76:a2:b2:6b:9b:f9:96:fd:09:
                    2a:da:11:23:4d:f0:cb:d6:b2:b1:0e:12:6c:9a:19:
                    65:98:87:ca:e4:ee:24:ce:44:ac:90:8f:9d:1b:c5:
                    2a:9d
                Exponent: 65537 (0x10001)
        X509v3 extensions:
            X509v3 Key Usage: 
                Digital Signature, Key Encipherment
            X509v3 Basic Constraints: 
                CA:FALSE
            Netscape Cert Type: 
                SSL Server
            Netscape Comment: 
                OpenSSL Generated Server Certificate
            X509v3 Subject Key Identifier: 
                4D:07:90:AD:FF:1D:0D:E7:1A:DD:D6:2E:FA:BA:34:CB:AA:1F:24:C6
            X509v3 Authority Key Identifier: 
                keyid:F4:A7:C0:CC:91:46:AF:64:F3:91:F2:27:F8:C8:B2:6F:8A:87:32:73
                DirName:/C=DE/ST=Hessen/O=privacyidea/CN=CA001
                serial:FB:C8:EB:AC:83:CD:12:07

            X509v3 Extended Key Usage: 
                TLS Web Server Authentication
    Signature Algorithm: sha256WithRSAEncryption
         44:e4:15:93:ea:94:bc:cb:7f:6c:e1:6d:87:cf:fc:89:e9:4a:
         d5:56:c5:8d:04:c4:27:59:81:20:5e:3b:d5:c7:0c:ea:55:12:
         f9:58:d3:56:c9:96:90:d7:0b:14:99:00:4b:b5:ab:96:5c:3f:
         9c:35:71:23:db:8d:17:12:1e:0a:21:1e:50:fd:3d:88:57:82:
         8b:d8:99:6e:89:21:2f:70:a3:3f:24:eb:a2:87:22:71:3e:23:
         18:35:c1:c9:c0:d3:50:98:d1:a6:18:ba:e7:ee:cd:6d:e0:62:
         8f:6d:07:4e:3c:65:1f:39:68:22:56:6c:bb:60:65:50:82:a5:
         a1:37:4b:32:f0:da:51:6a:58:f4:c6:c3:c0:81:ff:8a:24:60:
         54:06:ff:57:78:a1:f6:d4:30:3f:1b:d2:55:d4:8c:b7:47:6f:
         01:19:1c:ee:f2:8e:54:08:3c:28:93:fa:f8:72:bf:3d:eb:af:
         dd:17:a7:aa:b2:73:62:29:2b:90:36:1d:59:66:70:99:26:ce:
         8f:e2:b5:aa:b5:27:d9:d8:28:88:9b:98:d3:8b:af:42:57:99:
         37:31:f3:2f:63:33:6d:9c:26:7f:17:98:75:2f:f4:fc:3d:3f:
         77:f5:cc:a5:f3:fb:d6:a4:82:00:b1:4e:30:1e:82:cb:b5:cd:
         43:9b:05:17
-----BEGIN CERTIFICATE-----
MIIEDzCCAvegAwIBAgIEEAAA5DANBgkqhkiG9w0BAQsFADBEMQswCQYDVQQGEwJE
RTEPMA0GA1UECAwGSGVzc2VuMRQwEgYDVQQKDAtwcml2YWN5aWRlYTEOMAwGA1UE
AwwFQ0EwMDEwHhcNMTgwMTIyMTM0ODA1WhcNMTkwMTIyMTM0ODA1WjA9MSUwIwYD
VQQDDBxzZWxmc2VydmljZSxDTj11c2VyLE89cmVhbG0xMRQwEgYJKoZIhvcNAQkB
FgVtZWluZTCCASIwDQYJKoZIhvcNAQEBBQADggEPADCCAQoCggEBAM881DMOEsTm
2s22VqEcJrsmHIpKc6hYirYes4uZ0h0HwpKJecBp2MjfKGGYHrP+riu9eKn3bkfc
o6AWjIUCwU6S/XJu8MgDKZu4AG7Ag5XINCA2nLPl5OZ2c6MarUCW4FNUAOx2eZrG
DX62vSnsg/PLiaTLbAC6DMV4D/9puJT0BHBDP9ie16f7Xc51jtrnxAexnd5viEu2
TZrP+bz6n80ybfY6Cw0jQnjsl0K/Dk1gVuHTAvIZy4RXkOVwoaKDNYbi2oaf+YrE
ebNSKNrLuzTK09qRSs+NdqKya5v5lv0JKtoRI03wy9aysQ4SbJoZZZiHyuTuJM5E
rJCPnRvFKp0CAwEAAaOCAQ4wggEKMAsGA1UdDwQEAwIFoDAJBgNVHRMEAjAAMBEG
CWCGSAGG+EIBAQQEAwIGQDAzBglghkgBhvhCAQ0EJhYkT3BlblNTTCBHZW5lcmF0
ZWQgU2VydmVyIENlcnRpZmljYXRlMB0GA1UdDgQWBBRNB5Ct/x0N5xrd1i76ujTL
qh8kxjB0BgNVHSMEbTBrgBT0p8DMkUavZPOR8if4yLJviocyc6FIpEYwRDELMAkG
A1UEBhMCREUxDzANBgNVBAgMBkhlc3NlbjEUMBIGA1UECgwLcHJpdmFjeWlkZWEx
DjAMBgNVBAMMBUNBMDAxggkA+8jrrIPNEgcwEwYDVR0lBAwwCgYIKwYBBQUHAwEw
DQYJKoZIhvcNAQELBQADggEBAETkFZPqlLzLf2zhbYfP/InpStVWxY0ExCdZgSBe
O9XHDOpVEvlY01bJlpDXCxSZAEu1q5ZcP5w1cSPbjRcSHgohHlD9PYhXgovYmW6J
IS9woz8k66KHInE+Ixg1wcnA01CY0aYYuufuzW3gYo9tB048ZR85aCJWbLtgZVCC
paE3SzLw2lFqWPTGw8CB/4okYFQG/1d4ofbUMD8b0lXUjLdHbwEZHO7yjlQIPCiT
+vhyvz3rr90Xp6qyc2IpK5A2HVlmcJkmzo/itaq1J9nYKIibmNOLr0JXmTcx8y9j
M22cJn8XmHUv9Pw9P3f1zKXz+9akggCxTjAegsu1zUObBRc=
-----END CERTIFICATE-----
